
LUFA_PROJECTS_USB_TO_SERIAL3.elf:     file format elf32-avr

Sections:
Idx Name          Size      VMA       LMA       File off  Algn
  0 .data         0000005a  00800100  00002666  000026fa  2**0
                  CONTENTS, ALLOC, LOAD, DATA
  1 .text         00002666  00000000  00000000  00000094  2**1
                  CONTENTS, ALLOC, LOAD, READONLY, CODE
  2 .bss          00000339  0080015a  0080015a  00002754  2**0
                  ALLOC
  3 .comment      00000030  00000000  00000000  00002754  2**0
                  CONTENTS, READONLY
  4 .debug_aranges 000005d8  00000000  00000000  00002784  2**0
                  CONTENTS, READONLY, DEBUGGING
  5 .debug_info   00008ca8  00000000  00000000  00002d5c  2**0
                  CONTENTS, READONLY, DEBUGGING
  6 .debug_abbrev 00001e16  00000000  00000000  0000ba04  2**0
                  CONTENTS, READONLY, DEBUGGING
  7 .debug_line   0000ca28  00000000  00000000  0000d81a  2**0
                  CONTENTS, READONLY, DEBUGGING
  8 .debug_frame  00001198  00000000  00000000  0001a244  2**2
                  CONTENTS, READONLY, DEBUGGING
  9 .debug_str    0001a934  00000000  00000000  0001b3dc  2**0
                  CONTENTS, READONLY, DEBUGGING
 10 .debug_loc    00006464  00000000  00000000  00035d10  2**0
                  CONTENTS, READONLY, DEBUGGING
 11 .debug_ranges 00001280  00000000  00000000  0003c174  2**0
                  CONTENTS, READONLY, DEBUGGING
 12 .debug_macro  00008e43  00000000  00000000  0003d3f4  2**0
                  CONTENTS, READONLY, DEBUGGING

Disassembly of section .text:

00000000 <__vectors>:
       0:	88 c0       	rjmp	.+272    	; 0x112 <__ctors_end>
       2:	00 00       	nop
       4:	a5 c0       	rjmp	.+330    	; 0x150 <__bad_interrupt>
       6:	00 00       	nop
       8:	a3 c0       	rjmp	.+326    	; 0x150 <__bad_interrupt>
       a:	00 00       	nop
       c:	a1 c0       	rjmp	.+322    	; 0x150 <__bad_interrupt>
       e:	00 00       	nop
      10:	9f c0       	rjmp	.+318    	; 0x150 <__bad_interrupt>
      12:	00 00       	nop
      14:	9d c0       	rjmp	.+314    	; 0x150 <__bad_interrupt>
      16:	00 00       	nop
      18:	0c 94 25 0a 	jmp	0x144a	; 0x144a <__vector_6>
      1c:	99 c0       	rjmp	.+306    	; 0x150 <__bad_interrupt>
      1e:	00 00       	nop
      20:	97 c0       	rjmp	.+302    	; 0x150 <__bad_interrupt>
      22:	00 00       	nop
      24:	95 c0       	rjmp	.+298    	; 0x150 <__bad_interrupt>
      26:	00 00       	nop
      28:	6d c7       	rjmp	.+3802   	; 0xf04 <__vector_10>
      2a:	00 00       	nop
      2c:	0c 94 47 08 	jmp	0x108e	; 0x108e <__vector_11>
      30:	8f c0       	rjmp	.+286    	; 0x150 <__bad_interrupt>
      32:	00 00       	nop
      34:	8d c0       	rjmp	.+282    	; 0x150 <__bad_interrupt>
      36:	00 00       	nop
      38:	8b c0       	rjmp	.+278    	; 0x150 <__bad_interrupt>
      3a:	00 00       	nop
      3c:	89 c0       	rjmp	.+274    	; 0x150 <__bad_interrupt>
      3e:	00 00       	nop
      40:	87 c0       	rjmp	.+270    	; 0x150 <__bad_interrupt>
      42:	00 00       	nop
      44:	85 c0       	rjmp	.+266    	; 0x150 <__bad_interrupt>
      46:	00 00       	nop
      48:	83 c0       	rjmp	.+262    	; 0x150 <__bad_interrupt>
      4a:	00 00       	nop
      4c:	81 c0       	rjmp	.+258    	; 0x150 <__bad_interrupt>
      4e:	00 00       	nop
      50:	7f c0       	rjmp	.+254    	; 0x150 <__bad_interrupt>
      52:	00 00       	nop
      54:	7d c0       	rjmp	.+250    	; 0x150 <__bad_interrupt>
      56:	00 00       	nop
      58:	7b c0       	rjmp	.+246    	; 0x150 <__bad_interrupt>
      5a:	00 00       	nop
      5c:	79 c0       	rjmp	.+242    	; 0x150 <__bad_interrupt>
      5e:	00 00       	nop
      60:	77 c0       	rjmp	.+238    	; 0x150 <__bad_interrupt>
      62:	00 00       	nop
      64:	0c 94 91 12 	jmp	0x2522	; 0x2522 <__vector_25>
      68:	73 c0       	rjmp	.+230    	; 0x150 <__bad_interrupt>
      6a:	00 00       	nop
      6c:	71 c0       	rjmp	.+226    	; 0x150 <__bad_interrupt>
      6e:	00 00       	nop
      70:	6f c0       	rjmp	.+222    	; 0x150 <__bad_interrupt>
      72:	00 00       	nop
      74:	96 c2       	rjmp	.+1324   	; 0x5a2 <__vector_29>
      76:	00 00       	nop
      78:	6b c0       	rjmp	.+214    	; 0x150 <__bad_interrupt>
      7a:	00 00       	nop
      7c:	69 c0       	rjmp	.+210    	; 0x150 <__bad_interrupt>
      7e:	00 00       	nop
      80:	67 c0       	rjmp	.+206    	; 0x150 <__bad_interrupt>
      82:	00 00       	nop
      84:	65 c0       	rjmp	.+202    	; 0x150 <__bad_interrupt>
      86:	00 00       	nop
      88:	63 c0       	rjmp	.+198    	; 0x150 <__bad_interrupt>
      8a:	00 00       	nop
      8c:	61 c0       	rjmp	.+194    	; 0x150 <__bad_interrupt>
      8e:	00 00       	nop
      90:	5f c0       	rjmp	.+190    	; 0x150 <__bad_interrupt>
      92:	00 00       	nop
      94:	5d c0       	rjmp	.+186    	; 0x150 <__bad_interrupt>
	...

00000098 <ProductString>:
      98:	0e 03 4d 00 43 00 20 00 33 00 2e 00 30 00 00 00     ..M.C. .3...0...

000000a8 <ManufacturerString>:
      a8:	14 03 50 00 45 00 54 00 45 00 20 00 4c 00 54 00     ..P.E.T.E. .L.T.
      b8:	44 00 41 00 00 00                                   D.A...

000000be <LanguageString>:
      be:	04 03 09 04                                         ....

000000c2 <ConfigurationDescriptor>:
      c2:	09 02 3e 00 02 01 00 c0 32 09 04 00 00 01 02 02     ..>.....2.......
      d2:	01 00 05 24 00 10 01 04 24 02 06 05 24 06 00 01     ...$....$...$...
      e2:	07 05 82 03 08 00 ff 09 04 01 00 02 0a 00 00 00     ................
      f2:	07 05 04 02 10 00 05 07 05 83 02 10 00 05           ..............

00000100 <DeviceDescriptor>:
     100:	12 01 10 01 02 00 00 08 d0 16 2d 20 01 00 01 02     ..........- ....
     110:	dc 01                                               ..

00000112 <__ctors_end>:
     112:	11 24       	eor	r1, r1
     114:	1f be       	out	0x3f, r1	; 63
     116:	cf ef       	ldi	r28, 0xFF	; 255
     118:	d0 e2       	ldi	r29, 0x20	; 32
     11a:	de bf       	out	0x3e, r29	; 62
     11c:	cd bf       	out	0x3d, r28	; 61

0000011e <__do_copy_data>:
     11e:	11 e0       	ldi	r17, 0x01	; 1
     120:	a0 e0       	ldi	r26, 0x00	; 0
     122:	b1 e0       	ldi	r27, 0x01	; 1
     124:	e6 e6       	ldi	r30, 0x66	; 102
     126:	f6 e2       	ldi	r31, 0x26	; 38
     128:	00 e0       	ldi	r16, 0x00	; 0
     12a:	0b bf       	out	0x3b, r16	; 59
     12c:	02 c0       	rjmp	.+4      	; 0x132 <__do_copy_data+0x14>
     12e:	07 90       	elpm	r0, Z+
     130:	0d 92       	st	X+, r0
     132:	aa 35       	cpi	r26, 0x5A	; 90
     134:	b1 07       	cpc	r27, r17
     136:	d9 f7       	brne	.-10     	; 0x12e <__do_copy_data+0x10>

00000138 <__do_clear_bss>:
     138:	24 e0       	ldi	r18, 0x04	; 4
     13a:	aa e5       	ldi	r26, 0x5A	; 90
     13c:	b1 e0       	ldi	r27, 0x01	; 1
     13e:	01 c0       	rjmp	.+2      	; 0x142 <.do_clear_bss_start>

00000140 <.do_clear_bss_loop>:
     140:	1d 92       	st	X+, r1

00000142 <.do_clear_bss_start>:
     142:	a3 39       	cpi	r26, 0x93	; 147
     144:	b2 07       	cpc	r27, r18
     146:	e1 f7       	brne	.-8      	; 0x140 <.do_clear_bss_loop>
     148:	0e 94 11 12 	call	0x2422	; 0x2422 <main>
     14c:	0c 94 31 13 	jmp	0x2662	; 0x2662 <_exit>

00000150 <__bad_interrupt>:
     150:	57 cf       	rjmp	.-338    	; 0x0 <__vectors>

00000152 <CALLBACK_USB_GetDescriptor>:
 */
uint16_t CALLBACK_USB_GetDescriptor(const uint16_t wValue,
                                    const uint8_t wIndex,
                                    const void** const DescriptorAddress)
{
	const uint8_t  DescriptorType   = (wValue >> 8);
     152:	29 2f       	mov	r18, r25
     154:	33 27       	eor	r19, r19
	const uint8_t  DescriptorNumber = (wValue & 0xFF);

	const void* Address = NULL;
	uint16_t    Size    = NO_DESCRIPTOR;

	switch (DescriptorType)
     156:	22 30       	cpi	r18, 0x02	; 2
     158:	31 05       	cpc	r19, r1
     15a:	59 f0       	breq	.+22     	; 0x172 <CALLBACK_USB_GetDescriptor+0x20>
     15c:	23 30       	cpi	r18, 0x03	; 3
     15e:	31 05       	cpc	r19, r1
     160:	69 f0       	breq	.+26     	; 0x17c <CALLBACK_USB_GetDescriptor+0x2a>
     162:	21 30       	cpi	r18, 0x01	; 1
     164:	31 05       	cpc	r19, r1
     166:	29 f1       	breq	.+74     	; 0x1b2 <CALLBACK_USB_GetDescriptor+0x60>
{
	const uint8_t  DescriptorType   = (wValue >> 8);
	const uint8_t  DescriptorNumber = (wValue & 0xFF);

	const void* Address = NULL;
	uint16_t    Size    = NO_DESCRIPTOR;
     168:	80 e0       	ldi	r24, 0x00	; 0
     16a:	90 e0       	ldi	r25, 0x00	; 0
                                    const void** const DescriptorAddress)
{
	const uint8_t  DescriptorType   = (wValue >> 8);
	const uint8_t  DescriptorNumber = (wValue & 0xFF);

	const void* Address = NULL;
     16c:	20 e0       	ldi	r18, 0x00	; 0
     16e:	30 e0       	ldi	r19, 0x00	; 0
     170:	29 c0       	rjmp	.+82     	; 0x1c4 <CALLBACK_USB_GetDescriptor+0x72>
			Address = &DeviceDescriptor;
			Size    = sizeof(USB_Descriptor_Device_t);
			break;
		case DTYPE_Configuration:
			Address = &ConfigurationDescriptor;
			Size    = sizeof(USB_Descriptor_Configuration_t);
     172:	8e e3       	ldi	r24, 0x3E	; 62
     174:	90 e0       	ldi	r25, 0x00	; 0
		case DTYPE_Device:
			Address = &DeviceDescriptor;
			Size    = sizeof(USB_Descriptor_Device_t);
			break;
		case DTYPE_Configuration:
			Address = &ConfigurationDescriptor;
     176:	22 ec       	ldi	r18, 0xC2	; 194
     178:	30 e0       	ldi	r19, 0x00	; 0
			Size    = sizeof(USB_Descriptor_Configuration_t);
			break;
     17a:	24 c0       	rjmp	.+72     	; 0x1c4 <CALLBACK_USB_GetDescriptor+0x72>
     17c:	99 27       	eor	r25, r25
		case DTYPE_String:
			switch (DescriptorNumber)
     17e:	81 30       	cpi	r24, 0x01	; 1
     180:	91 05       	cpc	r25, r1
     182:	59 f0       	breq	.+22     	; 0x19a <CALLBACK_USB_GetDescriptor+0x48>
     184:	82 30       	cpi	r24, 0x02	; 2
     186:	91 05       	cpc	r25, r1
     188:	71 f0       	breq	.+28     	; 0x1a6 <CALLBACK_USB_GetDescriptor+0x54>
     18a:	89 2b       	or	r24, r25
     18c:	b9 f4       	brne	.+46     	; 0x1bc <CALLBACK_USB_GetDescriptor+0x6a>
			{
				case STRING_ID_Language:
					Address = &LanguageString;
					Size    = pgm_read_byte(&LanguageString.Header.Size);
     18e:	ee eb       	ldi	r30, 0xBE	; 190
     190:	f0 e0       	ldi	r31, 0x00	; 0
     192:	84 91       	lpm	r24, Z
     194:	90 e0       	ldi	r25, 0x00	; 0
			break;
		case DTYPE_String:
			switch (DescriptorNumber)
			{
				case STRING_ID_Language:
					Address = &LanguageString;
     196:	9f 01       	movw	r18, r30
					Size    = pgm_read_byte(&LanguageString.Header.Size);
					break;
     198:	15 c0       	rjmp	.+42     	; 0x1c4 <CALLBACK_USB_GetDescriptor+0x72>
				case STRING_ID_Manufacturer:
					Address = &ManufacturerString;
					Size    = pgm_read_byte(&ManufacturerString.Header.Size);
     19a:	e8 ea       	ldi	r30, 0xA8	; 168
     19c:	f0 e0       	ldi	r31, 0x00	; 0
     19e:	84 91       	lpm	r24, Z
     1a0:	90 e0       	ldi	r25, 0x00	; 0
				case STRING_ID_Language:
					Address = &LanguageString;
					Size    = pgm_read_byte(&LanguageString.Header.Size);
					break;
				case STRING_ID_Manufacturer:
					Address = &ManufacturerString;
     1a2:	9f 01       	movw	r18, r30
					Size    = pgm_read_byte(&ManufacturerString.Header.Size);
					break;
     1a4:	0f c0       	rjmp	.+30     	; 0x1c4 <CALLBACK_USB_GetDescriptor+0x72>
				case STRING_ID_Product:
					Address = &ProductString;
					Size    = pgm_read_byte(&ProductString.Header.Size);
     1a6:	e8 e9       	ldi	r30, 0x98	; 152
     1a8:	f0 e0       	ldi	r31, 0x00	; 0
     1aa:	84 91       	lpm	r24, Z
     1ac:	90 e0       	ldi	r25, 0x00	; 0
				case STRING_ID_Manufacturer:
					Address = &ManufacturerString;
					Size    = pgm_read_byte(&ManufacturerString.Header.Size);
					break;
				case STRING_ID_Product:
					Address = &ProductString;
     1ae:	9f 01       	movw	r18, r30
					Size    = pgm_read_byte(&ProductString.Header.Size);
					break;
     1b0:	09 c0       	rjmp	.+18     	; 0x1c4 <CALLBACK_USB_GetDescriptor+0x72>

	switch (DescriptorType)
	{
		case DTYPE_Device:
			Address = &DeviceDescriptor;
			Size    = sizeof(USB_Descriptor_Device_t);
     1b2:	82 e1       	ldi	r24, 0x12	; 18
     1b4:	90 e0       	ldi	r25, 0x00	; 0
	uint16_t    Size    = NO_DESCRIPTOR;

	switch (DescriptorType)
	{
		case DTYPE_Device:
			Address = &DeviceDescriptor;
     1b6:	20 e0       	ldi	r18, 0x00	; 0
     1b8:	31 e0       	ldi	r19, 0x01	; 1
     1ba:	04 c0       	rjmp	.+8      	; 0x1c4 <CALLBACK_USB_GetDescriptor+0x72>
{
	const uint8_t  DescriptorType   = (wValue >> 8);
	const uint8_t  DescriptorNumber = (wValue & 0xFF);

	const void* Address = NULL;
	uint16_t    Size    = NO_DESCRIPTOR;
     1bc:	80 e0       	ldi	r24, 0x00	; 0
     1be:	90 e0       	ldi	r25, 0x00	; 0
                                    const void** const DescriptorAddress)
{
	const uint8_t  DescriptorType   = (wValue >> 8);
	const uint8_t  DescriptorNumber = (wValue & 0xFF);

	const void* Address = NULL;
     1c0:	20 e0       	ldi	r18, 0x00	; 0
     1c2:	30 e0       	ldi	r19, 0x00	; 0
			}

			break;
	}

	*DescriptorAddress = Address;
     1c4:	fa 01       	movw	r30, r20
     1c6:	31 83       	std	Z+1, r19	; 0x01
     1c8:	20 83       	st	Z, r18
	return Size;
}
     1ca:	08 95       	ret

000001cc <apagaLed>:
}

//  Apaga os leds do uMC
void apagaLed(int8_t l)
{
	switch (l)
     1cc:	81 30       	cpi	r24, 0x01	; 1
     1ce:	09 f4       	brne	.+2      	; 0x1d2 <apagaLed+0x6>
	{
		case 1:
		L1R_off();
     1d0:	70 98       	cbi	0x0e, 0	; 14
     1d2:	08 95       	ret

000001d4 <converteIdSEntradasS>:
// Funcao que classifica os IDs lidos em valores válido para o LEGAL

// Converte os Ids dos sensores/atuadores das entradas S
int16_t converteIdSEntradasS (int16_t valorLido)
{
	if (valorLido<LimiteIDLivre)		return IDLivre;
     1d4:	8a 30       	cpi	r24, 0x0A	; 10
     1d6:	91 05       	cpc	r25, r1
     1d8:	5c f1       	brlt	.+86     	; 0x230 <converteIdSEntradasS+0x5c>
	if (valorLido<LimiteIDCor)			return IDCor;
     1da:	83 33       	cpi	r24, 0x33	; 51
     1dc:	91 05       	cpc	r25, r1
     1de:	5c f1       	brlt	.+86     	; 0x236 <converteIdSEntradasS+0x62>
	if (valorLido<LimiteIDLuz)			return IDLuz;
     1e0:	8c 35       	cpi	r24, 0x5C	; 92
     1e2:	91 05       	cpc	r25, r1
     1e4:	5c f1       	brlt	.+86     	; 0x23c <converteIdSEntradasS+0x68>
	if (valorLido<LimiteIDSom)			return IDSom;
     1e6:	8d 37       	cpi	r24, 0x7D	; 125
     1e8:	91 05       	cpc	r25, r1
     1ea:	5c f1       	brlt	.+86     	; 0x242 <converteIdSEntradasS+0x6e>
	if (valorLido<LimiteIDTemperatura)	return IDTemperatura;
     1ec:	8f 3a       	cpi	r24, 0xAF	; 175
     1ee:	91 05       	cpc	r25, r1
     1f0:	5c f1       	brlt	.+86     	; 0x248 <converteIdSEntradasS+0x74>
	if (valorLido<LimiteIDResistencia)	return IDResistencia;
     1f2:	85 3f       	cpi	r24, 0xF5	; 245
     1f4:	91 05       	cpc	r25, r1
     1f6:	5c f1       	brlt	.+86     	; 0x24e <converteIdSEntradasS+0x7a>
	if (valorLido<LimiteIDTensao)		return IDTensao;
     1f8:	84 32       	cpi	r24, 0x24	; 36
     1fa:	21 e0       	ldi	r18, 0x01	; 1
     1fc:	92 07       	cpc	r25, r18
     1fe:	54 f1       	brlt	.+84     	; 0x254 <converteIdSEntradasS+0x80>
	if (valorLido<LimiteIDAnalogico)	return IDAnalogico;
     200:	8c 34       	cpi	r24, 0x4C	; 76
     202:	21 e0       	ldi	r18, 0x01	; 1
     204:	92 07       	cpc	r25, r18
     206:	4c f1       	brlt	.+82     	; 0x25a <converteIdSEntradasS+0x86>
	if (valorLido<LimiteIDDigital)		return IDAtDigital;
     208:	8c 3a       	cpi	r24, 0xAC	; 172
     20a:	22 e0       	ldi	r18, 0x02	; 2
     20c:	92 07       	cpc	r25, r18
     20e:	44 f1       	brlt	.+80     	; 0x260 <converteIdSEntradasS+0x8c>
	if (valorLido<LimiteIDAtLed)		return IDAtLed;
     210:	8a 3f       	cpi	r24, 0xFA	; 250
     212:	22 e0       	ldi	r18, 0x02	; 2
     214:	92 07       	cpc	r25, r18
     216:	3c f1       	brlt	.+78     	; 0x266 <converteIdSEntradasS+0x92>
	if (valorLido<LimiteIDDigital)		return IDDigital;
	if (valorLido<LimiteIDProximidade)	return IDProximidade;
     218:	83 39       	cpi	r24, 0x93	; 147
     21a:	23 e0       	ldi	r18, 0x03	; 3
     21c:	92 07       	cpc	r25, r18
     21e:	34 f1       	brlt	.+76     	; 0x26c <converteIdSEntradasS+0x98>
	if (valorLido<LimiteIDFaixa)		return IDFaixa;
     220:	86 3b       	cpi	r24, 0xB6	; 182
     222:	23 e0       	ldi	r18, 0x03	; 3
     224:	92 07       	cpc	r25, r18
     226:	2c f1       	brlt	.+74     	; 0x272 <converteIdSEntradasS+0x9e>
	if (valorLido<LimiteIDContado)		return IDContado;
     228:	88 3e       	cpi	r24, 0xE8	; 232
     22a:	93 40       	sbci	r25, 0x03	; 3
     22c:	2c f1       	brlt	.+74     	; 0x278 <converteIdSEntradasS+0xa4>
     22e:	08 95       	ret
// Funcao que classifica os IDs lidos em valores válido para o LEGAL

// Converte os Ids dos sensores/atuadores das entradas S
int16_t converteIdSEntradasS (int16_t valorLido)
{
	if (valorLido<LimiteIDLivre)		return IDLivre;
     230:	80 e0       	ldi	r24, 0x00	; 0
     232:	90 e0       	ldi	r25, 0x00	; 0
     234:	08 95       	ret
	if (valorLido<LimiteIDCor)			return IDCor;
     236:	82 e0       	ldi	r24, 0x02	; 2
     238:	90 e0       	ldi	r25, 0x00	; 0
     23a:	08 95       	ret
	if (valorLido<LimiteIDLuz)			return IDLuz;
     23c:	83 e0       	ldi	r24, 0x03	; 3
     23e:	90 e0       	ldi	r25, 0x00	; 0
     240:	08 95       	ret
	if (valorLido<LimiteIDSom)			return IDSom;
     242:	84 e0       	ldi	r24, 0x04	; 4
     244:	90 e0       	ldi	r25, 0x00	; 0
     246:	08 95       	ret
	if (valorLido<LimiteIDTemperatura)	return IDTemperatura;
     248:	85 e0       	ldi	r24, 0x05	; 5
     24a:	90 e0       	ldi	r25, 0x00	; 0
     24c:	08 95       	ret
	if (valorLido<LimiteIDResistencia)	return IDResistencia;
     24e:	86 e0       	ldi	r24, 0x06	; 6
     250:	90 e0       	ldi	r25, 0x00	; 0
     252:	08 95       	ret
	if (valorLido<LimiteIDTensao)		return IDTensao;
     254:	87 e0       	ldi	r24, 0x07	; 7
     256:	90 e0       	ldi	r25, 0x00	; 0
     258:	08 95       	ret
	if (valorLido<LimiteIDAnalogico)	return IDAnalogico;
     25a:	88 e0       	ldi	r24, 0x08	; 8
     25c:	90 e0       	ldi	r25, 0x00	; 0
     25e:	08 95       	ret
	if (valorLido<LimiteIDDigital)		return IDAtDigital;
     260:	8d ef       	ldi	r24, 0xFD	; 253
     262:	9f ef       	ldi	r25, 0xFF	; 255
     264:	08 95       	ret
	if (valorLido<LimiteIDAtLed)		return IDAtLed;
     266:	8e ef       	ldi	r24, 0xFE	; 254
     268:	9f ef       	ldi	r25, 0xFF	; 255
     26a:	08 95       	ret
	if (valorLido<LimiteIDDigital)		return IDDigital;
	if (valorLido<LimiteIDProximidade)	return IDProximidade;
     26c:	8a ef       	ldi	r24, 0xFA	; 250
     26e:	9f ef       	ldi	r25, 0xFF	; 255
     270:	08 95       	ret
	if (valorLido<LimiteIDFaixa)		return IDFaixa;
     272:	89 ef       	ldi	r24, 0xF9	; 249
     274:	9f ef       	ldi	r25, 0xFF	; 255
     276:	08 95       	ret
	if (valorLido<LimiteIDContado)		return IDContado;
     278:	8b ef       	ldi	r24, 0xFB	; 251
     27a:	9f ef       	ldi	r25, 0xFF	; 255
}
     27c:	08 95       	ret

0000027e <converteIdServos>:


// Converte os Ids dos servos
int16_t converteIdServos (int16_t valorLido)
{
	if (valorLido<5)   return IDLivre;
     27e:	05 97       	sbiw	r24, 0x05	; 5
     280:	1c f4       	brge	.+6      	; 0x288 <converteIdServos+0xa>
     282:	80 e0       	ldi	r24, 0x00	; 0
     284:	90 e0       	ldi	r25, 0x00	; 0
     286:	08 95       	ret
	if (valorLido<34)  return IDAtServoA;
     288:	84 e6       	ldi	r24, 0x64	; 100
     28a:	90 e0       	ldi	r25, 0x00	; 0
	if (valorLido<69)  return IDAtServoB;
	if (valorLido<105) return IDAtServoC;
	return IDAtServoD;
}
     28c:	08 95       	ret

0000028e <converteIdMotores>:

// Converte os Ids dos servos
int16_t converteIdMotores (int16_t valorLido)
{
	if (valorLido<900)  return IDLivre;
     28e:	84 38       	cpi	r24, 0x84	; 132
     290:	93 40       	sbci	r25, 0x03	; 3
     292:	1c f4       	brge	.+6      	; 0x29a <converteIdMotores+0xc>
     294:	80 e0       	ldi	r24, 0x00	; 0
     296:	90 e0       	ldi	r25, 0x00	; 0
     298:	08 95       	ret
	return IDAtMotor;
     29a:	80 e8       	ldi	r24, 0x80	; 128
     29c:	90 e0       	ldi	r25, 0x00	; 0

}
     29e:	08 95       	ret

000002a0 <leiturasAD_ALPHA>:
 */ 

#include "maqVirtual.h"

void leiturasAD_ALPHA()
{
     2a0:	1f 93       	push	r17
     2a2:	cf 93       	push	r28
     2a4:	df 93       	push	r29
	
	uint16_t soma=0;
	
	registradores[bateriaValor] = leiuraMediaSleep(ad_bat);
     2a6:	86 e0       	ldi	r24, 0x06	; 6
     2a8:	90 e0       	ldi	r25, 0x00	; 0
     2aa:	7c d1       	rcall	.+760    	; 0x5a4 <leiuraMediaSleep>
     2ac:	90 93 91 02 	sts	0x0291, r25
     2b0:	80 93 90 02 	sts	0x0290, r24
	
	// Leituras com o Multiplexador
	
	//Configura MUX
	ADMUX = (0xf0 & ADMUX) | ad_mux;
     2b4:	ec e7       	ldi	r30, 0x7C	; 124
     2b6:	f0 e0       	ldi	r31, 0x00	; 0
     2b8:	80 81       	ld	r24, Z
     2ba:	80 7f       	andi	r24, 0xF0	; 240
     2bc:	87 60       	ori	r24, 0x07	; 7
     2be:	80 83       	st	Z, r24
     2c0:	c4 e7       	ldi	r28, 0x74	; 116
     2c2:	d2 e0       	ldi	r29, 0x02	; 2

	for (int8_t porta=0; porta<nrPortasNoMux; porta++)
     2c4:	50 e0       	ldi	r21, 0x00	; 0
	{
		PORTC = (0xf0 & PORTC) | porta;
		ADCSRA |= (1 << ADSC);
     2c6:	aa e7       	ldi	r26, 0x7A	; 122
     2c8:	b0 e0       	ldi	r27, 0x00	; 0
     2ca:	18 e0       	ldi	r17, 0x08	; 8
     2cc:	70 e0       	ldi	r23, 0x00	; 0
     2ce:	60 e0       	ldi	r22, 0x00	; 0
		for (uint8_t i=0; i<numeroDeLeituraMedia; i++)
		{
			sleep_mode();
			soma += ADC;
     2d0:	e8 e7       	ldi	r30, 0x78	; 120
     2d2:	f0 e0       	ldi	r31, 0x00	; 0
	//Configura MUX
	ADMUX = (0xf0 & ADMUX) | ad_mux;

	for (int8_t porta=0; porta<nrPortasNoMux; porta++)
	{
		PORTC = (0xf0 & PORTC) | porta;
     2d4:	88 b1       	in	r24, 0x08	; 8
     2d6:	80 7f       	andi	r24, 0xF0	; 240
     2d8:	85 2b       	or	r24, r21
     2da:	88 b9       	out	0x08, r24	; 8
		ADCSRA |= (1 << ADSC);
     2dc:	8c 91       	ld	r24, X
     2de:	80 64       	ori	r24, 0x40	; 64
     2e0:	8c 93       	st	X, r24
     2e2:	41 2f       	mov	r20, r17
     2e4:	87 2f       	mov	r24, r23
     2e6:	96 2f       	mov	r25, r22
		for (uint8_t i=0; i<numeroDeLeituraMedia; i++)
		{
			sleep_mode();
     2e8:	23 b7       	in	r18, 0x33	; 51
     2ea:	21 60       	ori	r18, 0x01	; 1
     2ec:	23 bf       	out	0x33, r18	; 51
     2ee:	88 95       	sleep
     2f0:	23 b7       	in	r18, 0x33	; 51
     2f2:	2e 7f       	andi	r18, 0xFE	; 254
     2f4:	23 bf       	out	0x33, r18	; 51
			soma += ADC;
     2f6:	20 81       	ld	r18, Z
     2f8:	31 81       	ldd	r19, Z+1	; 0x01
     2fa:	82 0f       	add	r24, r18
     2fc:	93 1f       	adc	r25, r19
     2fe:	41 50       	subi	r20, 0x01	; 1

	for (int8_t porta=0; porta<nrPortasNoMux; porta++)
	{
		PORTC = (0xf0 & PORTC) | porta;
		ADCSRA |= (1 << ADSC);
		for (uint8_t i=0; i<numeroDeLeituraMedia; i++)
     300:	99 f7       	brne	.-26     	; 0x2e8 <leiturasAD_ALPHA+0x48>
		{
			sleep_mode();
			soma += ADC;
		} 
		registradores[porta] =  soma >> deslocamentoParaMediaLeituras;
     302:	96 95       	lsr	r25
     304:	87 95       	ror	r24
     306:	96 95       	lsr	r25
     308:	87 95       	ror	r24
     30a:	96 95       	lsr	r25
     30c:	87 95       	ror	r24
     30e:	89 93       	st	Y+, r24
     310:	99 93       	st	Y+, r25
	// Leituras com o Multiplexador
	
	//Configura MUX
	ADMUX = (0xf0 & ADMUX) | ad_mux;

	for (int8_t porta=0; porta<nrPortasNoMux; porta++)
     312:	5f 5f       	subi	r21, 0xFF	; 255
     314:	5e 30       	cpi	r21, 0x0E	; 14
     316:	f1 f6       	brne	.-68     	; 0x2d4 <leiturasAD_ALPHA+0x34>
		} 
		registradores[porta] =  soma >> deslocamentoParaMediaLeituras;
		soma=0;
	}
		
}
     318:	df 91       	pop	r29
     31a:	cf 91       	pop	r28
     31c:	1f 91       	pop	r17
     31e:	08 95       	ret

00000320 <trataID>:


// Converte o valor dos IDs lidos diretamnete dos AD's pelos valores correspondente a cada sensor/atuador
void trataID()
{
     320:	cf 93       	push	r28
     322:	df 93       	push	r29
	registradores[s1ID] = converteIdSEntradasS(registradores[s1ID]);
     324:	ce e7       	ldi	r28, 0x7E	; 126
     326:	d2 e0       	ldi	r29, 0x02	; 2
     328:	88 81       	ld	r24, Y
     32a:	99 81       	ldd	r25, Y+1	; 0x01
     32c:	53 df       	rcall	.-346    	; 0x1d4 <converteIdSEntradasS>
     32e:	99 83       	std	Y+1, r25	; 0x01
     330:	88 83       	st	Y, r24
	registradores[s2ID] = converteIdSEntradasS(registradores[s2ID]);
     332:	c4 e7       	ldi	r28, 0x74	; 116
     334:	d2 e0       	ldi	r29, 0x02	; 2
     336:	88 81       	ld	r24, Y
     338:	99 81       	ldd	r25, Y+1	; 0x01
     33a:	4c df       	rcall	.-360    	; 0x1d4 <converteIdSEntradasS>
     33c:	99 83       	std	Y+1, r25	; 0x01
     33e:	88 83       	st	Y, r24
	registradores[s3ID] = converteIdSEntradasS(registradores[s3ID]);
     340:	c2 e8       	ldi	r28, 0x82	; 130
     342:	d2 e0       	ldi	r29, 0x02	; 2
     344:	88 81       	ld	r24, Y
     346:	99 81       	ldd	r25, Y+1	; 0x01
     348:	45 df       	rcall	.-374    	; 0x1d4 <converteIdSEntradasS>
     34a:	99 83       	std	Y+1, r25	; 0x01
     34c:	88 83       	st	Y, r24
	registradores[s4ID] = converteIdSEntradasS(registradores[s4ID]);
     34e:	c8 e7       	ldi	r28, 0x78	; 120
     350:	d2 e0       	ldi	r29, 0x02	; 2
     352:	88 81       	ld	r24, Y
     354:	99 81       	ldd	r25, Y+1	; 0x01
     356:	3e df       	rcall	.-388    	; 0x1d4 <converteIdSEntradasS>
     358:	99 83       	std	Y+1, r25	; 0x01
     35a:	88 83       	st	Y, r24

	registradores[servo1ID] = converteIdServos(registradores[servo1ID]);
     35c:	c4 e8       	ldi	r28, 0x84	; 132
     35e:	d2 e0       	ldi	r29, 0x02	; 2
     360:	88 81       	ld	r24, Y
     362:	99 81       	ldd	r25, Y+1	; 0x01
     364:	8c df       	rcall	.-232    	; 0x27e <converteIdServos>
     366:	99 83       	std	Y+1, r25	; 0x01
     368:	88 83       	st	Y, r24
	registradores[servo2ID] = converteIdServos(registradores[servo2ID]);
     36a:	ce e8       	ldi	r28, 0x8E	; 142
     36c:	d2 e0       	ldi	r29, 0x02	; 2
     36e:	88 81       	ld	r24, Y
     370:	99 81       	ldd	r25, Y+1	; 0x01
     372:	85 df       	rcall	.-246    	; 0x27e <converteIdServos>
     374:	99 83       	std	Y+1, r25	; 0x01
     376:	88 83       	st	Y, r24

	registradores[meID] = converteIdMotores(registradores[meID]);
     378:	c6 e8       	ldi	r28, 0x86	; 134
     37a:	d2 e0       	ldi	r29, 0x02	; 2
     37c:	88 81       	ld	r24, Y
     37e:	99 81       	ldd	r25, Y+1	; 0x01
     380:	86 df       	rcall	.-244    	; 0x28e <converteIdMotores>
     382:	99 83       	std	Y+1, r25	; 0x01
     384:	88 83       	st	Y, r24
	registradores[mdID] = converteIdMotores(registradores[mdID]);
     386:	cc e8       	ldi	r28, 0x8C	; 140
     388:	d2 e0       	ldi	r29, 0x02	; 2
     38a:	88 81       	ld	r24, Y
     38c:	99 81       	ldd	r25, Y+1	; 0x01
     38e:	7f df       	rcall	.-258    	; 0x28e <converteIdMotores>
     390:	99 83       	std	Y+1, r25	; 0x01
     392:	88 83       	st	Y, r24
}
     394:	df 91       	pop	r29
     396:	cf 91       	pop	r28
     398:	08 95       	ret

0000039a <trataSensoresDigitais>:

// Converet os valores das leituras AD para os sensores digitais.
void trataSensoresDigitais()
{
	if (registradores[s1ID]< 0)
     39a:	80 91 7e 02 	lds	r24, 0x027E
     39e:	90 91 7f 02 	lds	r25, 0x027F
     3a2:	99 23       	and	r25, r25
     3a4:	94 f4       	brge	.+36     	; 0x3ca <trataSensoresDigitais+0x30>
	  if (registradores[s1Valor]< LimiteDigital) registradores[s1Valor] = 0;
     3a6:	80 91 7c 02 	lds	r24, 0x027C
     3aa:	90 91 7d 02 	lds	r25, 0x027D
     3ae:	81 15       	cp	r24, r1
     3b0:	92 40       	sbci	r25, 0x02	; 2
     3b2:	2c f4       	brge	.+10     	; 0x3be <trataSensoresDigitais+0x24>
     3b4:	10 92 7d 02 	sts	0x027D, r1
     3b8:	10 92 7c 02 	sts	0x027C, r1
     3bc:	06 c0       	rjmp	.+12     	; 0x3ca <trataSensoresDigitais+0x30>
	  else registradores[s1Valor] = 1;
     3be:	81 e0       	ldi	r24, 0x01	; 1
     3c0:	90 e0       	ldi	r25, 0x00	; 0
     3c2:	90 93 7d 02 	sts	0x027D, r25
     3c6:	80 93 7c 02 	sts	0x027C, r24
	  
	if (registradores[s2ID]< 0)
     3ca:	80 91 74 02 	lds	r24, 0x0274
     3ce:	90 91 75 02 	lds	r25, 0x0275
     3d2:	99 23       	and	r25, r25
     3d4:	94 f4       	brge	.+36     	; 0x3fa <trataSensoresDigitais+0x60>
	if (registradores[s2Valor]< LimiteDigital) registradores[s2Valor] = 0;
     3d6:	80 91 76 02 	lds	r24, 0x0276
     3da:	90 91 77 02 	lds	r25, 0x0277
     3de:	81 15       	cp	r24, r1
     3e0:	92 40       	sbci	r25, 0x02	; 2
     3e2:	2c f4       	brge	.+10     	; 0x3ee <trataSensoresDigitais+0x54>
     3e4:	10 92 77 02 	sts	0x0277, r1
     3e8:	10 92 76 02 	sts	0x0276, r1
     3ec:	06 c0       	rjmp	.+12     	; 0x3fa <trataSensoresDigitais+0x60>
	else registradores[s2Valor] = 1;
     3ee:	81 e0       	ldi	r24, 0x01	; 1
     3f0:	90 e0       	ldi	r25, 0x00	; 0
     3f2:	90 93 77 02 	sts	0x0277, r25
     3f6:	80 93 76 02 	sts	0x0276, r24
	
	if (registradores[s3ID]< 0)
     3fa:	80 91 82 02 	lds	r24, 0x0282
     3fe:	90 91 83 02 	lds	r25, 0x0283
     402:	99 23       	and	r25, r25
     404:	94 f4       	brge	.+36     	; 0x42a <trataSensoresDigitais+0x90>
	  if (registradores[s3Valor]< LimiteDigital) registradores[s3Valor] = 0;
     406:	80 91 80 02 	lds	r24, 0x0280
     40a:	90 91 81 02 	lds	r25, 0x0281
     40e:	81 15       	cp	r24, r1
     410:	92 40       	sbci	r25, 0x02	; 2
     412:	2c f4       	brge	.+10     	; 0x41e <trataSensoresDigitais+0x84>
     414:	10 92 81 02 	sts	0x0281, r1
     418:	10 92 80 02 	sts	0x0280, r1
     41c:	06 c0       	rjmp	.+12     	; 0x42a <trataSensoresDigitais+0x90>
	  else registradores[s3Valor] = 1;	
     41e:	81 e0       	ldi	r24, 0x01	; 1
     420:	90 e0       	ldi	r25, 0x00	; 0
     422:	90 93 81 02 	sts	0x0281, r25
     426:	80 93 80 02 	sts	0x0280, r24
	  
	if (registradores[s4ID]< 0)
     42a:	80 91 78 02 	lds	r24, 0x0278
     42e:	90 91 79 02 	lds	r25, 0x0279
     432:	99 23       	and	r25, r25
     434:	94 f4       	brge	.+36     	; 0x45a <trataSensoresDigitais+0xc0>
		if (registradores[s4Valor]< LimiteDigital) registradores[s4Valor] = 0;
     436:	80 91 7a 02 	lds	r24, 0x027A
     43a:	90 91 7b 02 	lds	r25, 0x027B
     43e:	81 15       	cp	r24, r1
     440:	92 40       	sbci	r25, 0x02	; 2
     442:	2c f4       	brge	.+10     	; 0x44e <trataSensoresDigitais+0xb4>
     444:	10 92 7b 02 	sts	0x027B, r1
     448:	10 92 7a 02 	sts	0x027A, r1
     44c:	08 95       	ret
		else registradores[s4Valor] = 1;	    
     44e:	81 e0       	ldi	r24, 0x01	; 1
     450:	90 e0       	ldi	r25, 0x00	; 0
     452:	90 93 7b 02 	sts	0x027B, r25
     456:	80 93 7a 02 	sts	0x027A, r24
     45a:	08 95       	ret

0000045c <leituraAD_Ardunio>:
		
}


void leituraAD_Ardunio()
{
     45c:	0f 93       	push	r16
     45e:	1f 93       	push	r17
     460:	cf 93       	push	r28
     462:	df 93       	push	r29
     464:	02 e9       	ldi	r16, 0x92	; 146
     466:	12 e0       	ldi	r17, 0x02	; 2
     468:	c0 e0       	ldi	r28, 0x00	; 0
     46a:	d0 e0       	ldi	r29, 0x00	; 0
	for (int8_t i =ad0Valor; i<btEnterValor; i++)
		registradores[i]= leiuraMediaSleep(i-ad0Valor);
     46c:	ce 01       	movw	r24, r28
     46e:	9a d0       	rcall	.+308    	; 0x5a4 <leiuraMediaSleep>
     470:	f8 01       	movw	r30, r16
     472:	81 93       	st	Z+, r24
     474:	91 93       	st	Z+, r25
     476:	8f 01       	movw	r16, r30
     478:	21 96       	adiw	r28, 0x01	; 1
}


void leituraAD_Ardunio()
{
	for (int8_t i =ad0Valor; i<btEnterValor; i++)
     47a:	c6 30       	cpi	r28, 0x06	; 6
     47c:	d1 05       	cpc	r29, r1
     47e:	b1 f7       	brne	.-20     	; 0x46c <leituraAD_Ardunio+0x10>
		registradores[i]= leiuraMediaSleep(i-ad0Valor);
}
     480:	df 91       	pop	r29
     482:	cf 91       	pop	r28
     484:	1f 91       	pop	r17
     486:	0f 91       	pop	r16
     488:	08 95       	ret

0000048a <leituraDigital_Arduino>:

void leituraDigital_Arduino()
{
	registradores[p00Valor] = is_p00_set();
     48a:	89 b1       	in	r24, 0x09	; 9
     48c:	84 70       	andi	r24, 0x04	; 4
     48e:	90 e0       	ldi	r25, 0x00	; 0
     490:	90 93 a1 02 	sts	0x02A1, r25
     494:	80 93 a0 02 	sts	0x02A0, r24
	registradores[p01Valor] = is_p01_set();
     498:	89 b1       	in	r24, 0x09	; 9
     49a:	88 70       	andi	r24, 0x08	; 8
     49c:	90 e0       	ldi	r25, 0x00	; 0
     49e:	90 93 a3 02 	sts	0x02A3, r25
     4a2:	80 93 a2 02 	sts	0x02A2, r24
	registradores[p02Valor] = is_p02_set();
     4a6:	8c b1       	in	r24, 0x0c	; 12
     4a8:	80 74       	andi	r24, 0x40	; 64
     4aa:	90 e0       	ldi	r25, 0x00	; 0
     4ac:	90 93 a5 02 	sts	0x02A5, r25
     4b0:	80 93 a4 02 	sts	0x02A4, r24
	registradores[p03Valor] = is_p03_set();
     4b4:	83 b1       	in	r24, 0x03	; 3
     4b6:	80 72       	andi	r24, 0x20	; 32
     4b8:	90 e0       	ldi	r25, 0x00	; 0
     4ba:	90 93 a7 02 	sts	0x02A7, r25
     4be:	80 93 a6 02 	sts	0x02A6, r24
	registradores[p04Valor] = is_p04_set();
     4c2:	89 b1       	in	r24, 0x09	; 9
     4c4:	80 74       	andi	r24, 0x40	; 64
     4c6:	90 e0       	ldi	r25, 0x00	; 0
     4c8:	90 93 a9 02 	sts	0x02A9, r25
     4cc:	80 93 a8 02 	sts	0x02A8, r24
	registradores[p05Valor] = is_p05_set();
     4d0:	83 b1       	in	r24, 0x03	; 3
     4d2:	80 74       	andi	r24, 0x40	; 64
     4d4:	90 e0       	ldi	r25, 0x00	; 0
     4d6:	90 93 ab 02 	sts	0x02AB, r25
     4da:	80 93 aa 02 	sts	0x02AA, r24
	registradores[p06Valor] = is_p06_set();
     4de:	83 b1       	in	r24, 0x03	; 3
     4e0:	80 78       	andi	r24, 0x80	; 128
     4e2:	90 e0       	ldi	r25, 0x00	; 0
     4e4:	90 93 ad 02 	sts	0x02AD, r25
     4e8:	80 93 ac 02 	sts	0x02AC, r24
	registradores[p07Valor] = is_p07_set();
     4ec:	8c b1       	in	r24, 0x0c	; 12
     4ee:	80 78       	andi	r24, 0x80	; 128
     4f0:	90 e0       	ldi	r25, 0x00	; 0
     4f2:	90 93 af 02 	sts	0x02AF, r25
     4f6:	80 93 ae 02 	sts	0x02AE, r24
	registradores[p08Valor] = is_p08_set();
     4fa:	89 b1       	in	r24, 0x09	; 9
     4fc:	80 71       	andi	r24, 0x10	; 16
     4fe:	90 e0       	ldi	r25, 0x00	; 0
     500:	90 93 b1 02 	sts	0x02B1, r25
     504:	80 93 b0 02 	sts	0x02B0, r24
	registradores[p09Valor] = is_p09_set();
     508:	86 b1       	in	r24, 0x06	; 6
     50a:	80 72       	andi	r24, 0x20	; 32
     50c:	90 e0       	ldi	r25, 0x00	; 0
     50e:	90 93 b3 02 	sts	0x02B3, r25
     512:	80 93 b2 02 	sts	0x02B2, r24
	registradores[p10Valor] = is_p10_set();
     516:	83 b1       	in	r24, 0x03	; 3
     518:	81 70       	andi	r24, 0x01	; 1
     51a:	80 93 b4 02 	sts	0x02B4, r24
     51e:	10 92 b5 02 	sts	0x02B5, r1
	registradores[p11Valor] = is_p11_set();
     522:	83 b1       	in	r24, 0x03	; 3
     524:	84 70       	andi	r24, 0x04	; 4
     526:	90 e0       	ldi	r25, 0x00	; 0
     528:	90 93 b7 02 	sts	0x02B7, r25
     52c:	80 93 b6 02 	sts	0x02B6, r24
	registradores[p12Valor] = is_p12_set();
     530:	83 b1       	in	r24, 0x03	; 3
     532:	88 70       	andi	r24, 0x08	; 8
     534:	90 e0       	ldi	r25, 0x00	; 0
     536:	90 93 b9 02 	sts	0x02B9, r25
     53a:	80 93 b8 02 	sts	0x02B8, r24
	registradores[p13Valor] = is_p13_set();
     53e:	83 b1       	in	r24, 0x03	; 3
     540:	82 70       	andi	r24, 0x02	; 2
     542:	90 e0       	ldi	r25, 0x00	; 0
     544:	90 93 bb 02 	sts	0x02BB, r25
     548:	80 93 ba 02 	sts	0x02BA, r24
     54c:	08 95       	ret

0000054e <lerEntradasuMC>:
}

void lerEntradasuMC()
{
	leiturasAD_ALPHA();
     54e:	a8 de       	rcall	.-688    	; 0x2a0 <leiturasAD_ALPHA>
	le_botaoENTER();
     550:	8c b1       	in	r24, 0x0c	; 12
     552:	86 95       	lsr	r24
     554:	86 95       	lsr	r24
     556:	91 e0       	ldi	r25, 0x01	; 1
     558:	89 27       	eor	r24, r25
     55a:	81 70       	andi	r24, 0x01	; 1
     55c:	80 93 9e 02 	sts	0x029E, r24
     560:	10 92 9f 02 	sts	0x029F, r1
	leituraAD_Ardunio();
     564:	7b df       	rcall	.-266    	; 0x45c <leituraAD_Ardunio>
	leituraDigital_Arduino();
     566:	91 cf       	rjmp	.-222    	; 0x48a <leituraDigital_Arduino>
     568:	08 95       	ret

0000056a <inicia_AD>:
		loop_until_bit_is_clear(ADCSRA, ADSC);		/* espera terminar */
		oversample += ADC;
		
	}
	return (oversample >> deslocamentoParaMediaLeituras);
}
     56a:	87 b1       	in	r24, 0x07	; 7
     56c:	8f 60       	ori	r24, 0x0F	; 15
     56e:	87 b9       	out	0x07, r24	; 7
     570:	ec e7       	ldi	r30, 0x7C	; 124
     572:	f0 e0       	ldi	r31, 0x00	; 0
     574:	80 81       	ld	r24, Z
     576:	80 64       	ori	r24, 0x40	; 64
     578:	80 83       	st	Z, r24
     57a:	ea e7       	ldi	r30, 0x7A	; 122
     57c:	f0 e0       	ldi	r31, 0x00	; 0
     57e:	80 81       	ld	r24, Z
     580:	87 60       	ori	r24, 0x07	; 7
     582:	80 83       	st	Z, r24
     584:	80 81       	ld	r24, Z
     586:	80 68       	ori	r24, 0x80	; 128
     588:	80 83       	st	Z, r24
     58a:	08 95       	ret

0000058c <setupADCSleepmode>:
     58c:	83 b7       	in	r24, 0x33	; 51
     58e:	81 7f       	andi	r24, 0xF1	; 241
     590:	82 60       	ori	r24, 0x02	; 2
     592:	83 bf       	out	0x33, r24	; 51
     594:	ea e7       	ldi	r30, 0x7A	; 122
     596:	f0 e0       	ldi	r31, 0x00	; 0
     598:	80 81       	ld	r24, Z
     59a:	88 60       	ori	r24, 0x08	; 8
     59c:	80 83       	st	Z, r24
     59e:	78 94       	sei
     5a0:	08 95       	ret

000005a2 <__vector_29>:
     5a2:	18 95       	reti

000005a4 <leiuraMediaSleep>:

uint16_t leiuraMediaSleep(uint8_t channel)
{
	uint16_t oversample=0;

	if (channel>7) {
     5a4:	88 30       	cpi	r24, 0x08	; 8
     5a6:	60 f0       	brcs	.+24     	; 0x5c0 <leiuraMediaSleep+0x1c>
		channel -= 8;
		PORTC = (0xf0 & PORTC) | channel;
     5a8:	98 b1       	in	r25, 0x08	; 8
uint16_t leiuraMediaSleep(uint8_t channel)
{
	uint16_t oversample=0;

	if (channel>7) {
		channel -= 8;
     5aa:	88 50       	subi	r24, 0x08	; 8
		PORTC = (0xf0 & PORTC) | channel;
     5ac:	90 7f       	andi	r25, 0xF0	; 240
     5ae:	89 2b       	or	r24, r25
     5b0:	88 b9       	out	0x08, r24	; 8
		ADMUX = (0xf0 & ADMUX) | ad_mux;
     5b2:	ec e7       	ldi	r30, 0x7C	; 124
     5b4:	f0 e0       	ldi	r31, 0x00	; 0
     5b6:	80 81       	ld	r24, Z
     5b8:	80 7f       	andi	r24, 0xF0	; 240
     5ba:	87 60       	ori	r24, 0x07	; 7
     5bc:	80 83       	st	Z, r24
     5be:	06 c0       	rjmp	.+12     	; 0x5cc <leiuraMediaSleep+0x28>
	}
	else ADMUX = (0xf0 & ADMUX) | channel;
     5c0:	ec e7       	ldi	r30, 0x7C	; 124
     5c2:	f0 e0       	ldi	r31, 0x00	; 0
     5c4:	90 81       	ld	r25, Z
     5c6:	90 7f       	andi	r25, 0xF0	; 240
     5c8:	89 2b       	or	r24, r25
     5ca:	80 83       	st	Z, r24
	ADCSRA |= (1 << ADSC);
     5cc:	ea e7       	ldi	r30, 0x7A	; 122
     5ce:	f0 e0       	ldi	r31, 0x00	; 0
     5d0:	80 81       	ld	r24, Z
     5d2:	80 64       	ori	r24, 0x40	; 64
     5d4:	80 83       	st	Z, r24
     5d6:	48 e0       	ldi	r20, 0x08	; 8
	return (oversample >> deslocamentoParaMediaLeituras);
}

uint16_t leiuraMediaSleep(uint8_t channel)
{
	uint16_t oversample=0;
     5d8:	80 e0       	ldi	r24, 0x00	; 0
     5da:	90 e0       	ldi	r25, 0x00	; 0
	else ADMUX = (0xf0 & ADMUX) | channel;
	ADCSRA |= (1 << ADSC);
	for (uint8_t i=0; i<numeroDeLeituraMedia; i++)
	{
		sleep_mode();
		oversample += ADC;
     5dc:	e8 e7       	ldi	r30, 0x78	; 120
     5de:	f0 e0       	ldi	r31, 0x00	; 0
	}
	else ADMUX = (0xf0 & ADMUX) | channel;
	ADCSRA |= (1 << ADSC);
	for (uint8_t i=0; i<numeroDeLeituraMedia; i++)
	{
		sleep_mode();
     5e0:	23 b7       	in	r18, 0x33	; 51
     5e2:	21 60       	ori	r18, 0x01	; 1
     5e4:	23 bf       	out	0x33, r18	; 51
     5e6:	88 95       	sleep
     5e8:	23 b7       	in	r18, 0x33	; 51
     5ea:	2e 7f       	andi	r18, 0xFE	; 254
     5ec:	23 bf       	out	0x33, r18	; 51
		oversample += ADC;
     5ee:	20 81       	ld	r18, Z
     5f0:	31 81       	ldd	r19, Z+1	; 0x01
     5f2:	82 0f       	add	r24, r18
     5f4:	93 1f       	adc	r25, r19
     5f6:	41 50       	subi	r20, 0x01	; 1
		PORTC = (0xf0 & PORTC) | channel;
		ADMUX = (0xf0 & ADMUX) | ad_mux;
	}
	else ADMUX = (0xf0 & ADMUX) | channel;
	ADCSRA |= (1 << ADSC);
	for (uint8_t i=0; i<numeroDeLeituraMedia; i++)
     5f8:	99 f7       	brne	.-26     	; 0x5e0 <leiuraMediaSleep+0x3c>
		sleep_mode();
		oversample += ADC;
		
	}
	return (oversample >> deslocamentoParaMediaLeituras);
}
     5fa:	96 95       	lsr	r25
     5fc:	87 95       	ror	r24
     5fe:	96 95       	lsr	r25
     600:	87 95       	ror	r24
     602:	96 95       	lsr	r25
     604:	87 95       	ror	r24
     606:	08 95       	ret

00000608 <inicia_LEDS>:
#include "digitalIO.h"

/*  Inicia os Leds da placa */
void inicia_LEDS()
{
	DDRE |= (LED_L1G | LED_L1R | LED_L2G);
     608:	8d b1       	in	r24, 0x0d	; 13
     60a:	83 61       	ori	r24, 0x13	; 19
     60c:	8d b9       	out	0x0d, r24	; 13
	DDRD |= LED_L2R;
     60e:	55 9a       	sbi	0x0a, 5	; 10
	
	L1R_off();
     610:	70 98       	cbi	0x0e, 0	; 14
	L1G_off();
     612:	71 98       	cbi	0x0e, 1	; 14
	L2R_off();
     614:	5d 98       	cbi	0x0b, 5	; 11
	L2G_off();
     616:	74 98       	cbi	0x0e, 4	; 14
     618:	08 95       	ret

0000061a <inicia_Botoes>:
}

/*  Inicia os Botoes da placa */
void inicia_Botoes()
{
	DDRE &= ~(bt1 | bt2);
     61a:	8d b1       	in	r24, 0x0d	; 13
     61c:	8b 7d       	andi	r24, 0xDB	; 219
     61e:	8d b9       	out	0x0d, r24	; 13
	PORTE |= (bt1 | bt2);
     620:	8e b1       	in	r24, 0x0e	; 14
     622:	84 62       	ori	r24, 0x24	; 36
     624:	8e b9       	out	0x0e, r24	; 14
     626:	08 95       	ret

00000628 <inicia_uMC>:

#include "Misc.h"

void inicia_uMC()
{
	inicia_LEDS();
     628:	ef df       	rcall	.-34     	; 0x608 <inicia_LEDS>
	inicia_Botoes();
     62a:	f7 df       	rcall	.-18     	; 0x61a <inicia_Botoes>
	inicia_USART();
     62c:	7e d0       	rcall	.+252    	; 0x72a <inicia_USART>
	inicia_AD();
     62e:	9d df       	rcall	.-198    	; 0x56a <inicia_AD>
	inicia_Timer();
     630:	5b d0       	rcall	.+182    	; 0x6e8 <inicia_Timer>
	inicia_motoresDC();
     632:	06 d0       	rcall	.+12     	; 0x640 <inicia_motoresDC>
	inicia_servo();
     634:	35 c0       	rjmp	.+106    	; 0x6a0 <inicia_servo>
     636:	08 95       	ret

00000638 <reInicia_uMC>:

/*  Esta rotina deve ser chamada ao termino de execução de um programa em LEGAL,
 *  Ela é responsável por retornar a configuração das I/Os para os valores padrão. */
void reInicia_uMC()
{
	inicia_USART();
     638:	78 d0       	rcall	.+240    	; 0x72a <inicia_USART>
	inicia_AD();
     63a:	97 df       	rcall	.-210    	; 0x56a <inicia_AD>
	inicia_Timer();
     63c:	55 c0       	rjmp	.+170    	; 0x6e8 <inicia_Timer>
     63e:	08 95       	ret

00000640 <inicia_motoresDC>:
#include "motoresDC.h"

void inicia_motoresDC()
{
	
	pwmd_saida;
     640:	3d 9a       	sbi	0x07, 5	; 7
	md1_saida;
     642:	57 9a       	sbi	0x0a, 7	; 10
	md2_saida;
     644:	3c 9a       	sbi	0x07, 4	; 7
	
	pwme_saida;
     646:	3e 9a       	sbi	0x07, 6	; 7
	me1_saida;
     648:	56 9a       	sbi	0x0a, 6	; 10
	me2_saida;
     64a:	54 9a       	sbi	0x0a, 4	; 10
	
	md_parado;
     64c:	5f 98       	cbi	0x0b, 7	; 11
     64e:	44 98       	cbi	0x08, 4	; 8
	me_parado;
     650:	5e 98       	cbi	0x0b, 6	; 11
     652:	5c 98       	cbi	0x0b, 4	; 11
	
	md_pulso(pulsoMed);
     654:	88 e5       	ldi	r24, 0x58	; 88
     656:	90 e0       	ldi	r25, 0x00	; 0
     658:	90 93 99 00 	sts	0x0099, r25
     65c:	80 93 98 00 	sts	0x0098, r24
	me_pulso(pulsoMed);
     660:	90 93 9b 00 	sts	0x009B, r25
     664:	80 93 9a 00 	sts	0x009A, r24

	/*   Motor da direita >> Timer 3B */
	/* Set up Timer1 (16bit) para gerar um pulso a cada 20ms */
	TCCR3A |= (1 << WGM31);
     668:	e0 e9       	ldi	r30, 0x90	; 144
     66a:	f0 e0       	ldi	r31, 0x00	; 0
     66c:	80 81       	ld	r24, Z
     66e:	82 60       	ori	r24, 0x02	; 2
     670:	80 83       	st	Z, r24
	TCCR3B |= (1 << WGM32) | (1 << WGM33);	/* Usando Fast PWM, counter max em ICR1 */
     672:	a1 e9       	ldi	r26, 0x91	; 145
     674:	b0 e0       	ldi	r27, 0x00	; 0
     676:	8c 91       	ld	r24, X
     678:	88 61       	ori	r24, 0x18	; 24
     67a:	8c 93       	st	X, r24
	TCCR3B |= (1 << CS30); 					/* /1 prescaling  */
     67c:	8c 91       	ld	r24, X
     67e:	81 60       	ori	r24, 0x01	; 1
     680:	8c 93       	st	X, r24
	ICR3 = 176;							    /* 90 Khz */
     682:	80 eb       	ldi	r24, 0xB0	; 176
     684:	90 e0       	ldi	r25, 0x00	; 0
     686:	90 93 97 00 	sts	0x0097, r25
     68a:	80 93 96 00 	sts	0x0096, r24
	TCCR3A |= (1 << COM3A1);				/* modo de saida canal A*/
     68e:	80 81       	ld	r24, Z
     690:	80 68       	ori	r24, 0x80	; 128
     692:	80 83       	st	Z, r24
	TCCR3A |= (1 << COM3B1);				/* modo de saida canal B*/
     694:	80 81       	ld	r24, Z
     696:	80 62       	ori	r24, 0x20	; 32
     698:	80 83       	st	Z, r24
	
	
	mtstby_saida;
     69a:	3f 9a       	sbi	0x07, 7	; 7
	mtstby_set;
     69c:	47 9a       	sbi	0x08, 7	; 8
     69e:	08 95       	ret

000006a0 <inicia_servo>:

#include "servo.h"


void inicia_servo(void) {
	OCR1A = PULSE_MID;						/* coloca  os servos na posicao central.*/
     6a0:	80 e8       	ldi	r24, 0x80	; 128
     6a2:	9c e0       	ldi	r25, 0x0C	; 12
     6a4:	90 93 89 00 	sts	0x0089, r25
     6a8:	80 93 88 00 	sts	0x0088, r24
	OCR1B = PULSE_MID;
     6ac:	90 93 8b 00 	sts	0x008B, r25
     6b0:	80 93 8a 00 	sts	0x008A, r24
	/* Set up Timer1 (16bit) para gerar um pulso a cada 20ms */	
	TCCR1A |= (1 << WGM11);
     6b4:	e0 e8       	ldi	r30, 0x80	; 128
     6b6:	f0 e0       	ldi	r31, 0x00	; 0
     6b8:	80 81       	ld	r24, Z
     6ba:	82 60       	ori	r24, 0x02	; 2
     6bc:	80 83       	st	Z, r24
	TCCR1B |= (1 << WGM12) | (1 << WGM13);	/* Usando Fast PWM, counter max em ICR1 */
     6be:	a1 e8       	ldi	r26, 0x81	; 129
     6c0:	b0 e0       	ldi	r27, 0x00	; 0
     6c2:	8c 91       	ld	r24, X
     6c4:	88 61       	ori	r24, 0x18	; 24
     6c6:	8c 93       	st	X, r24
	TCCR1B |= (1 << CS11); 					/* /8 prescaling -- counting in microseconds */
     6c8:	8c 91       	ld	r24, X
     6ca:	82 60       	ori	r24, 0x02	; 2
     6cc:	8c 93       	st	X, r24
	ICR1 = 40000;							/* TOP  = 20ms */
     6ce:	80 e4       	ldi	r24, 0x40	; 64
     6d0:	9c e9       	ldi	r25, 0x9C	; 156
     6d2:	90 93 87 00 	sts	0x0087, r25
     6d6:	80 93 86 00 	sts	0x0086, r24
	TCCR1A |= (1 << COM1A1);				/* modo de saida canal A*/
     6da:	80 81       	ld	r24, Z
     6dc:	80 68       	ori	r24, 0x80	; 128
     6de:	80 83       	st	Z, r24
	TCCR1A |= (1 << COM1B1);				/* modo de saida canal B*/
     6e0:	80 81       	ld	r24, Z
     6e2:	80 62       	ori	r24, 0x20	; 32
     6e4:	80 83       	st	Z, r24
     6e6:	08 95       	ret

000006e8 <inicia_Timer>:
 */ 

#include "som.h"

void inicia_Timer(void) {
	TCCR2A |= (1 << WGM21);                                  /* CTC mode */
     6e8:	e0 eb       	ldi	r30, 0xB0	; 176
     6ea:	f0 e0       	ldi	r31, 0x00	; 0
     6ec:	80 81       	ld	r24, Z
     6ee:	82 60       	ori	r24, 0x02	; 2
     6f0:	80 83       	st	Z, r24
	TCCR2A |= (1 << COM2A0);								 /* inverte o pino a cada ciclo */
     6f2:	80 81       	ld	r24, Z
     6f4:	80 64       	ori	r24, 0x40	; 64
     6f6:	80 83       	st	Z, r24
	TCCR2B |= (1 << CS21) | (1 << CS22);					 /* CPU clock / 256 */
     6f8:	e1 eb       	ldi	r30, 0xB1	; 177
     6fa:	f0 e0       	ldi	r31, 0x00	; 0
     6fc:	80 81       	ld	r24, Z
     6fe:	86 60       	ori	r24, 0x06	; 6
     700:	80 83       	st	Z, r24
     702:	08 95       	ret

00000704 <playNote>:
}

void playNote(uint8_t wavelength, uint16_t duration) {
	
	OCR2A = wavelength;									/* seta nota */
     704:	80 93 b3 00 	sts	0x00B3, r24
	buzzer_DDR |= (1 << buzzer);						/* habilita a saida do Buzzer */
     708:	24 9a       	sbi	0x04, 4	; 4
	
	
	while (duration) {                                  /* duracao do som */
     70a:	61 15       	cp	r22, r1
     70c:	71 05       	cpc	r23, r1
     70e:	59 f0       	breq	.+22     	; 0x726 <playNote+0x22>
	#else
		//round up by default
		__ticks_dc = (uint32_t)(ceil(fabs(__tmp)));
	#endif

	__builtin_avr_delay_cycles(__ticks_dc);
     710:	8f e9       	ldi	r24, 0x9F	; 159
     712:	9f e0       	ldi	r25, 0x0F	; 15
     714:	01 97       	sbiw	r24, 0x01	; 1
     716:	f1 f7       	brne	.-4      	; 0x714 <playNote+0x10>
     718:	00 c0       	rjmp	.+0      	; 0x71a <playNote+0x16>
     71a:	00 00       	nop
		_delay_ms(1);
		duration--;
     71c:	61 50       	subi	r22, 0x01	; 1
     71e:	71 09       	sbc	r23, r1
	
	OCR2A = wavelength;									/* seta nota */
	buzzer_DDR |= (1 << buzzer);						/* habilita a saida do Buzzer */
	
	
	while (duration) {                                  /* duracao do som */
     720:	61 15       	cp	r22, r1
     722:	71 05       	cpc	r23, r1
     724:	a9 f7       	brne	.-22     	; 0x710 <playNote+0xc>
		_delay_ms(1);
		duration--;
	}	
	buzzer_DDR &= ~(1 << buzzer);                     /* desliga Buzzer */
     726:	24 98       	cbi	0x04, 4	; 4
     728:	08 95       	ret

0000072a <inicia_USART>:
 *  Author: pacheco
 */ 
#include "USART.h"

void inicia_USART() {                           /* requires BAUD */
	UBRR1H = UBRRH_VALUE;                        /* definido em  setbaud.h */
     72a:	10 92 cd 00 	sts	0x00CD, r1
	UBRR1L = UBRRL_VALUE;
     72e:	87 e6       	ldi	r24, 0x67	; 103
     730:	80 93 cc 00 	sts	0x00CC, r24
	#if USE_2X
		UCSR1A |= (1 << U2X1);
	#else
	   UCSR1A &= ~(1 << U2X1);
     734:	e8 ec       	ldi	r30, 0xC8	; 200
     736:	f0 e0       	ldi	r31, 0x00	; 0
     738:	80 81       	ld	r24, Z
     73a:	8d 7f       	andi	r24, 0xFD	; 253
     73c:	80 83       	st	Z, r24
	#endif
	                                   /* Enable USART transmitter/receiver */
	UCSR1B = (1 << TXEN1) | (1 << RXEN1);
     73e:	88 e1       	ldi	r24, 0x18	; 24
     740:	80 93 c9 00 	sts	0x00C9, r24
	UCSR1C = (1 << UCSZ11) | (1 << UCSZ10);   /* 8 data bits, 1 stop bit */
     744:	86 e0       	ldi	r24, 0x06	; 6
     746:	80 93 ca 00 	sts	0x00CA, r24
     74a:	08 95       	ret

0000074c <CDC_Device_ConfigureEndpoints>:

void CDC_Device_CreateBlockingStream(USB_ClassInfo_CDC_Device_t* const CDCInterfaceInfo,
                                     FILE* const Stream)
{
	*Stream = (FILE)FDEV_SETUP_STREAM(CDC_Device_putchar, CDC_Device_getchar_Blocking, _FDEV_SETUP_RW);
	fdev_set_udata(Stream, CDCInterfaceInfo);
     74c:	cf 93       	push	r28
     74e:	df 93       	push	r29
     750:	ec 01       	movw	r28, r24
     752:	fc 01       	movw	r30, r24
     754:	70 96       	adiw	r30, 0x10	; 16
     756:	8b e0       	ldi	r24, 0x0B	; 11
     758:	df 01       	movw	r26, r30
     75a:	1d 92       	st	X+, r1
     75c:	8a 95       	dec	r24
     75e:	e9 f7       	brne	.-6      	; 0x75a <CDC_Device_ConfigureEndpoints+0xe>
     760:	82 e0       	ldi	r24, 0x02	; 2
     762:	8c 83       	std	Y+4, r24	; 0x04
     764:	89 87       	std	Y+9, r24	; 0x09
     766:	83 e0       	ldi	r24, 0x03	; 3
     768:	8e 87       	std	Y+14, r24	; 0x0e
     76a:	61 e0       	ldi	r22, 0x01	; 1
     76c:	ce 01       	movw	r24, r28
     76e:	01 96       	adiw	r24, 0x01	; 1
     770:	a9 d2       	rcall	.+1362   	; 0xcc4 <Endpoint_ConfigureEndpointTable>
     772:	88 23       	and	r24, r24
     774:	51 f0       	breq	.+20     	; 0x78a <CDC_Device_ConfigureEndpoints+0x3e>
     776:	61 e0       	ldi	r22, 0x01	; 1
     778:	ce 01       	movw	r24, r28
     77a:	06 96       	adiw	r24, 0x06	; 6
     77c:	a3 d2       	rcall	.+1350   	; 0xcc4 <Endpoint_ConfigureEndpointTable>
     77e:	88 23       	and	r24, r24
     780:	21 f0       	breq	.+8      	; 0x78a <CDC_Device_ConfigureEndpoints+0x3e>
     782:	61 e0       	ldi	r22, 0x01	; 1
     784:	ce 01       	movw	r24, r28
     786:	0b 96       	adiw	r24, 0x0b	; 11
     788:	9d d2       	rcall	.+1338   	; 0xcc4 <Endpoint_ConfigureEndpointTable>
     78a:	df 91       	pop	r29
     78c:	cf 91       	pop	r28
     78e:	08 95       	ret

00000790 <CDC_Device_SendByte>:
     790:	cf 93       	push	r28
     792:	c6 2f       	mov	r28, r22
     794:	2e b3       	in	r18, 0x1e	; 30
     796:	24 30       	cpi	r18, 0x04	; 4
     798:	e9 f4       	brne	.+58     	; 0x7d4 <CDC_Device_SendByte+0x44>
     79a:	fc 01       	movw	r30, r24
     79c:	44 89       	ldd	r20, Z+20	; 0x14
     79e:	55 89       	ldd	r21, Z+21	; 0x15
     7a0:	66 89       	ldd	r22, Z+22	; 0x16
     7a2:	77 89       	ldd	r23, Z+23	; 0x17
     7a4:	45 2b       	or	r20, r21
     7a6:	46 2b       	or	r20, r22
     7a8:	47 2b       	or	r20, r23
     7aa:	b1 f0       	breq	.+44     	; 0x7d8 <CDC_Device_SendByte+0x48>
     7ac:	81 81       	ldd	r24, Z+1	; 0x01
     7ae:	8f 70       	andi	r24, 0x0F	; 15
     7b0:	80 93 e9 00 	sts	0x00E9, r24
     7b4:	80 91 e8 00 	lds	r24, 0x00E8
     7b8:	85 fd       	sbrc	r24, 5
     7ba:	08 c0       	rjmp	.+16     	; 0x7cc <CDC_Device_SendByte+0x3c>
     7bc:	e8 ee       	ldi	r30, 0xE8	; 232
     7be:	f0 e0       	ldi	r31, 0x00	; 0
     7c0:	80 81       	ld	r24, Z
     7c2:	8e 77       	andi	r24, 0x7E	; 126
     7c4:	80 83       	st	Z, r24
     7c6:	fd d2       	rcall	.+1530   	; 0xdc2 <Endpoint_WaitUntilReady>
     7c8:	81 11       	cpse	r24, r1
     7ca:	07 c0       	rjmp	.+14     	; 0x7da <CDC_Device_SendByte+0x4a>
     7cc:	c0 93 f1 00 	sts	0x00F1, r28
     7d0:	80 e0       	ldi	r24, 0x00	; 0
     7d2:	03 c0       	rjmp	.+6      	; 0x7da <CDC_Device_SendByte+0x4a>
     7d4:	82 e0       	ldi	r24, 0x02	; 2
     7d6:	01 c0       	rjmp	.+2      	; 0x7da <CDC_Device_SendByte+0x4a>
     7d8:	82 e0       	ldi	r24, 0x02	; 2
     7da:	cf 91       	pop	r28
     7dc:	08 95       	ret

000007de <CDC_Device_Flush>:
     7de:	2e b3       	in	r18, 0x1e	; 30
     7e0:	24 30       	cpi	r18, 0x04	; 4
     7e2:	21 f5       	brne	.+72     	; 0x82c <CDC_Device_Flush+0x4e>
     7e4:	fc 01       	movw	r30, r24
     7e6:	44 89       	ldd	r20, Z+20	; 0x14
     7e8:	55 89       	ldd	r21, Z+21	; 0x15
     7ea:	66 89       	ldd	r22, Z+22	; 0x16
     7ec:	77 89       	ldd	r23, Z+23	; 0x17
     7ee:	45 2b       	or	r20, r21
     7f0:	46 2b       	or	r20, r22
     7f2:	47 2b       	or	r20, r23
     7f4:	e9 f0       	breq	.+58     	; 0x830 <CDC_Device_Flush+0x52>
     7f6:	81 81       	ldd	r24, Z+1	; 0x01
     7f8:	8f 70       	andi	r24, 0x0F	; 15
     7fa:	80 93 e9 00 	sts	0x00E9, r24
     7fe:	80 91 f2 00 	lds	r24, 0x00F2
     802:	90 91 f3 00 	lds	r25, 0x00F3
     806:	89 2b       	or	r24, r25
     808:	a9 f0       	breq	.+42     	; 0x834 <CDC_Device_Flush+0x56>
     80a:	e8 ee       	ldi	r30, 0xE8	; 232
     80c:	f0 e0       	ldi	r31, 0x00	; 0
     80e:	80 81       	ld	r24, Z
     810:	90 81       	ld	r25, Z
     812:	9e 77       	andi	r25, 0x7E	; 126
     814:	90 83       	st	Z, r25
     816:	85 fd       	sbrc	r24, 5
     818:	0f c0       	rjmp	.+30     	; 0x838 <CDC_Device_Flush+0x5a>
     81a:	d3 d2       	rcall	.+1446   	; 0xdc2 <Endpoint_WaitUntilReady>
     81c:	81 11       	cpse	r24, r1
     81e:	0d c0       	rjmp	.+26     	; 0x83a <CDC_Device_Flush+0x5c>
     820:	e8 ee       	ldi	r30, 0xE8	; 232
     822:	f0 e0       	ldi	r31, 0x00	; 0
     824:	90 81       	ld	r25, Z
     826:	9e 77       	andi	r25, 0x7E	; 126
     828:	90 83       	st	Z, r25
     82a:	08 95       	ret
     82c:	82 e0       	ldi	r24, 0x02	; 2
     82e:	08 95       	ret
     830:	82 e0       	ldi	r24, 0x02	; 2
     832:	08 95       	ret
     834:	80 e0       	ldi	r24, 0x00	; 0
     836:	08 95       	ret
     838:	80 e0       	ldi	r24, 0x00	; 0
     83a:	08 95       	ret

0000083c <CDC_Device_USBTask>:
     83c:	2e b3       	in	r18, 0x1e	; 30
     83e:	24 30       	cpi	r18, 0x04	; 4
     840:	89 f4       	brne	.+34     	; 0x864 <CDC_Device_USBTask+0x28>
     842:	fc 01       	movw	r30, r24
     844:	44 89       	ldd	r20, Z+20	; 0x14
     846:	55 89       	ldd	r21, Z+21	; 0x15
     848:	66 89       	ldd	r22, Z+22	; 0x16
     84a:	77 89       	ldd	r23, Z+23	; 0x17
     84c:	45 2b       	or	r20, r21
     84e:	46 2b       	or	r20, r22
     850:	47 2b       	or	r20, r23
     852:	41 f0       	breq	.+16     	; 0x864 <CDC_Device_USBTask+0x28>
     854:	21 81       	ldd	r18, Z+1	; 0x01
     856:	2f 70       	andi	r18, 0x0F	; 15
     858:	20 93 e9 00 	sts	0x00E9, r18
     85c:	20 91 e8 00 	lds	r18, 0x00E8
     860:	20 fd       	sbrc	r18, 0
     862:	bd cf       	rjmp	.-134    	; 0x7de <CDC_Device_Flush>
     864:	08 95       	ret

00000866 <CDC_Device_ReceiveByte>:
     866:	2e b3       	in	r18, 0x1e	; 30
     868:	24 30       	cpi	r18, 0x04	; 4
     86a:	59 f5       	brne	.+86     	; 0x8c2 <CDC_Device_ReceiveByte+0x5c>
     86c:	fc 01       	movw	r30, r24
     86e:	44 89       	ldd	r20, Z+20	; 0x14
     870:	55 89       	ldd	r21, Z+21	; 0x15
     872:	66 89       	ldd	r22, Z+22	; 0x16
     874:	77 89       	ldd	r23, Z+23	; 0x17
     876:	45 2b       	or	r20, r21
     878:	46 2b       	or	r20, r22
     87a:	47 2b       	or	r20, r23
     87c:	29 f1       	breq	.+74     	; 0x8c8 <CDC_Device_ReceiveByte+0x62>
     87e:	86 81       	ldd	r24, Z+6	; 0x06
     880:	8f 70       	andi	r24, 0x0F	; 15
     882:	80 93 e9 00 	sts	0x00E9, r24
     886:	80 91 e8 00 	lds	r24, 0x00E8
     88a:	82 ff       	sbrs	r24, 2
     88c:	20 c0       	rjmp	.+64     	; 0x8ce <CDC_Device_ReceiveByte+0x68>
     88e:	80 91 f2 00 	lds	r24, 0x00F2
     892:	90 91 f3 00 	lds	r25, 0x00F3
     896:	89 2b       	or	r24, r25
     898:	21 f0       	breq	.+8      	; 0x8a2 <CDC_Device_ReceiveByte+0x3c>
     89a:	20 91 f1 00 	lds	r18, 0x00F1
     89e:	30 e0       	ldi	r19, 0x00	; 0
     8a0:	02 c0       	rjmp	.+4      	; 0x8a6 <CDC_Device_ReceiveByte+0x40>
     8a2:	2f ef       	ldi	r18, 0xFF	; 255
     8a4:	3f ef       	ldi	r19, 0xFF	; 255
     8a6:	80 91 f2 00 	lds	r24, 0x00F2
     8aa:	90 91 f3 00 	lds	r25, 0x00F3
     8ae:	89 2b       	or	r24, r25
     8b0:	89 f4       	brne	.+34     	; 0x8d4 <CDC_Device_ReceiveByte+0x6e>
     8b2:	e8 ee       	ldi	r30, 0xE8	; 232
     8b4:	f0 e0       	ldi	r31, 0x00	; 0
     8b6:	80 81       	ld	r24, Z
     8b8:	8b 77       	andi	r24, 0x7B	; 123
     8ba:	80 83       	st	Z, r24
     8bc:	82 2f       	mov	r24, r18
     8be:	93 2f       	mov	r25, r19
     8c0:	08 95       	ret
     8c2:	8f ef       	ldi	r24, 0xFF	; 255
     8c4:	9f ef       	ldi	r25, 0xFF	; 255
     8c6:	08 95       	ret
     8c8:	8f ef       	ldi	r24, 0xFF	; 255
     8ca:	9f ef       	ldi	r25, 0xFF	; 255
     8cc:	08 95       	ret
     8ce:	8f ef       	ldi	r24, 0xFF	; 255
     8d0:	9f ef       	ldi	r25, 0xFF	; 255
     8d2:	08 95       	ret
     8d4:	82 2f       	mov	r24, r18
     8d6:	93 2f       	mov	r25, r19
     8d8:	08 95       	ret

000008da <CDC_Device_Event_Stub>:
	return ReceivedByte;
}
#endif

void CDC_Device_Event_Stub(void)
{
     8da:	08 95       	ret

000008dc <CDC_Device_ProcessControlRequest>:
#define  __INCLUDE_FROM_CDC_DRIVER
#define  __INCLUDE_FROM_CDC_DEVICE_C
#include "CDCClassDevice.h"

void CDC_Device_ProcessControlRequest(USB_ClassInfo_CDC_Device_t* const CDCInterfaceInfo)
{
     8dc:	cf 93       	push	r28
     8de:	df 93       	push	r29
     8e0:	ec 01       	movw	r28, r24
			 *  \return Boolean \c true if the selected endpoint has received a SETUP packet, \c false otherwise.
			 */
			static inline bool Endpoint_IsSETUPReceived(void) ATTR_WARN_UNUSED_RESULT ATTR_ALWAYS_INLINE;
			static inline bool Endpoint_IsSETUPReceived(void)
			{
				return ((UEINTX & (1 << RXSTPI)) ? true : false);
     8e2:	80 91 e8 00 	lds	r24, 0x00E8
	if (!(Endpoint_IsSETUPReceived()))
     8e6:	83 ff       	sbrs	r24, 3
     8e8:	95 c0       	rjmp	.+298    	; 0xa14 <CDC_Device_ProcessControlRequest+0x138>
	  return;

	if (USB_ControlRequest.wIndex != CDCInterfaceInfo->Config.ControlInterfaceNumber)
     8ea:	88 81       	ld	r24, Y
     8ec:	90 e0       	ldi	r25, 0x00	; 0
     8ee:	20 91 7a 04 	lds	r18, 0x047A
     8f2:	30 91 7b 04 	lds	r19, 0x047B
     8f6:	28 17       	cp	r18, r24
     8f8:	39 07       	cpc	r19, r25
     8fa:	09 f0       	breq	.+2      	; 0x8fe <CDC_Device_ProcessControlRequest+0x22>
     8fc:	8b c0       	rjmp	.+278    	; 0xa14 <CDC_Device_ProcessControlRequest+0x138>
	  return;

	switch (USB_ControlRequest.bRequest)
     8fe:	80 91 77 04 	lds	r24, 0x0477
     902:	81 32       	cpi	r24, 0x21	; 33
     904:	59 f0       	breq	.+22     	; 0x91c <CDC_Device_ProcessControlRequest+0x40>
     906:	18 f4       	brcc	.+6      	; 0x90e <CDC_Device_ProcessControlRequest+0x32>
     908:	80 32       	cpi	r24, 0x20	; 32
     90a:	b9 f1       	breq	.+110    	; 0x97a <CDC_Device_ProcessControlRequest+0x9e>
     90c:	83 c0       	rjmp	.+262    	; 0xa14 <CDC_Device_ProcessControlRequest+0x138>
     90e:	82 32       	cpi	r24, 0x22	; 34
     910:	09 f4       	brne	.+2      	; 0x914 <CDC_Device_ProcessControlRequest+0x38>
     912:	5f c0       	rjmp	.+190    	; 0x9d2 <CDC_Device_ProcessControlRequest+0xf6>
     914:	83 32       	cpi	r24, 0x23	; 35
     916:	09 f4       	brne	.+2      	; 0x91a <CDC_Device_ProcessControlRequest+0x3e>
     918:	6f c0       	rjmp	.+222    	; 0x9f8 <CDC_Device_ProcessControlRequest+0x11c>
     91a:	7c c0       	rjmp	.+248    	; 0xa14 <CDC_Device_ProcessControlRequest+0x138>
	{
		case CDC_REQ_GetLineEncoding:
			if (USB_ControlRequest.bmRequestType == (REQDIR_DEVICETOHOST | REQTYPE_CLASS | REQREC_INTERFACE))
     91c:	80 91 76 04 	lds	r24, 0x0476
     920:	81 3a       	cpi	r24, 0xA1	; 161
     922:	09 f0       	breq	.+2      	; 0x926 <CDC_Device_ProcessControlRequest+0x4a>
     924:	77 c0       	rjmp	.+238    	; 0xa14 <CDC_Device_ProcessControlRequest+0x138>
			 *  \note This is not applicable for non CONTROL type endpoints.
			 */
			static inline void Endpoint_ClearSETUP(void) ATTR_ALWAYS_INLINE;
			static inline void Endpoint_ClearSETUP(void)
			{
				UEINTX &= ~(1 << RXSTPI);
     926:	e8 ee       	ldi	r30, 0xE8	; 232
     928:	f0 e0       	ldi	r31, 0x00	; 0
     92a:	80 81       	ld	r24, Z
     92c:	87 7f       	andi	r24, 0xF7	; 247
     92e:	80 83       	st	Z, r24
			 *  \return Boolean \c true if the current endpoint is ready for an IN packet, \c false otherwise.
			 */
			static inline bool Endpoint_IsINReady(void) ATTR_WARN_UNUSED_RESULT ATTR_ALWAYS_INLINE;
			static inline bool Endpoint_IsINReady(void)
			{
				return ((UEINTX & (1 << TXINI)) ? true : false);
     930:	80 81       	ld	r24, Z
			{
				Endpoint_ClearSETUP();

				while (!(Endpoint_IsINReady()));
     932:	80 ff       	sbrs	r24, 0
     934:	fd cf       	rjmp	.-6      	; 0x930 <CDC_Device_ProcessControlRequest+0x54>

				Endpoint_Write_32_LE(CDCInterfaceInfo->State.LineEncoding.BaudRateBPS);
     936:	4c 89       	ldd	r20, Y+20	; 0x14
     938:	5d 89       	ldd	r21, Y+21	; 0x15
     93a:	6e 89       	ldd	r22, Y+22	; 0x16
     93c:	7f 89       	ldd	r23, Y+23	; 0x17
			 *  \param[in] Data  Data to write to the currently selected endpoint's FIFO buffer.
			 */
			static inline void Endpoint_Write_32_LE(const uint32_t Data) ATTR_ALWAYS_INLINE;
			static inline void Endpoint_Write_32_LE(const uint32_t Data)
			{
				UEDATX = (Data &  0xFF);
     93e:	e1 ef       	ldi	r30, 0xF1	; 241
     940:	f0 e0       	ldi	r31, 0x00	; 0
     942:	40 83       	st	Z, r20
				UEDATX = (Data >> 8);
     944:	bb 27       	eor	r27, r27
     946:	a7 2f       	mov	r26, r23
     948:	96 2f       	mov	r25, r22
     94a:	85 2f       	mov	r24, r21
     94c:	80 83       	st	Z, r24
				UEDATX = (Data >> 16);
     94e:	cb 01       	movw	r24, r22
     950:	aa 27       	eor	r26, r26
     952:	bb 27       	eor	r27, r27
     954:	80 83       	st	Z, r24
				UEDATX = (Data >> 24);
     956:	47 2f       	mov	r20, r23
     958:	55 27       	eor	r21, r21
     95a:	66 27       	eor	r22, r22
     95c:	77 27       	eor	r23, r23
     95e:	40 83       	st	Z, r20
				Endpoint_Write_8(CDCInterfaceInfo->State.LineEncoding.CharFormat);
     960:	88 8d       	ldd	r24, Y+24	; 0x18
			 *  \param[in] Data  Data to write into the the currently selected endpoint's FIFO buffer.
			 */
			static inline void Endpoint_Write_8(const uint8_t Data) ATTR_ALWAYS_INLINE;
			static inline void Endpoint_Write_8(const uint8_t Data)
			{
				UEDATX = Data;
     962:	80 83       	st	Z, r24
				Endpoint_Write_8(CDCInterfaceInfo->State.LineEncoding.ParityType);
     964:	89 8d       	ldd	r24, Y+25	; 0x19
     966:	80 83       	st	Z, r24
				Endpoint_Write_8(CDCInterfaceInfo->State.LineEncoding.DataBits);
     968:	8a 8d       	ldd	r24, Y+26	; 0x1a
     96a:	80 83       	st	Z, r24
			 */
			static inline void Endpoint_ClearIN(void) ATTR_ALWAYS_INLINE;
			static inline void Endpoint_ClearIN(void)
			{
				#if !defined(CONTROL_ONLY_DEVICE)
					UEINTX &= ~((1 << TXINI) | (1 << FIFOCON));
     96c:	e8 ee       	ldi	r30, 0xE8	; 232
     96e:	f0 e0       	ldi	r31, 0x00	; 0
     970:	80 81       	ld	r24, Z
     972:	8e 77       	andi	r24, 0x7E	; 126
     974:	80 83       	st	Z, r24

				Endpoint_ClearIN();
				Endpoint_ClearStatusStage();
     976:	03 d2       	rcall	.+1030   	; 0xd7e <Endpoint_ClearStatusStage>
     978:	4d c0       	rjmp	.+154    	; 0xa14 <CDC_Device_ProcessControlRequest+0x138>
			}

			break;
		case CDC_REQ_SetLineEncoding:
			if (USB_ControlRequest.bmRequestType == (REQDIR_HOSTTODEVICE | REQTYPE_CLASS | REQREC_INTERFACE))
     97a:	80 91 76 04 	lds	r24, 0x0476
     97e:	81 32       	cpi	r24, 0x21	; 33
     980:	09 f0       	breq	.+2      	; 0x984 <CDC_Device_ProcessControlRequest+0xa8>
     982:	48 c0       	rjmp	.+144    	; 0xa14 <CDC_Device_ProcessControlRequest+0x138>
			 *  \note This is not applicable for non CONTROL type endpoints.
			 */
			static inline void Endpoint_ClearSETUP(void) ATTR_ALWAYS_INLINE;
			static inline void Endpoint_ClearSETUP(void)
			{
				UEINTX &= ~(1 << RXSTPI);
     984:	e8 ee       	ldi	r30, 0xE8	; 232
     986:	f0 e0       	ldi	r31, 0x00	; 0
     988:	80 81       	ld	r24, Z
     98a:	87 7f       	andi	r24, 0xF7	; 247
     98c:	80 83       	st	Z, r24
     98e:	04 c0       	rjmp	.+8      	; 0x998 <CDC_Device_ProcessControlRequest+0xbc>
			{
				Endpoint_ClearSETUP();

				while (!(Endpoint_IsOUTReceived()))
				{
					if (USB_DeviceState == DEVICE_STATE_Unattached)
     990:	8e b3       	in	r24, 0x1e	; 30
     992:	88 23       	and	r24, r24
     994:	09 f4       	brne	.+2      	; 0x998 <CDC_Device_ProcessControlRequest+0xbc>
     996:	3e c0       	rjmp	.+124    	; 0xa14 <CDC_Device_ProcessControlRequest+0x138>
			 *  \return Boolean \c true if current endpoint is has received an OUT packet, \c false otherwise.
			 */
			static inline bool Endpoint_IsOUTReceived(void) ATTR_WARN_UNUSED_RESULT ATTR_ALWAYS_INLINE;
			static inline bool Endpoint_IsOUTReceived(void)
			{
				return ((UEINTX & (1 << RXOUTI)) ? true : false);
     998:	80 81       	ld	r24, Z
		case CDC_REQ_SetLineEncoding:
			if (USB_ControlRequest.bmRequestType == (REQDIR_HOSTTODEVICE | REQTYPE_CLASS | REQREC_INTERFACE))
			{
				Endpoint_ClearSETUP();

				while (!(Endpoint_IsOUTReceived()))
     99a:	82 ff       	sbrs	r24, 2
     99c:	f9 cf       	rjmp	.-14     	; 0x990 <CDC_Device_ProcessControlRequest+0xb4>
				{
					uint32_t Value;
					uint8_t  Bytes[4];
				} Data;

				Data.Bytes[0] = UEDATX;
     99e:	e1 ef       	ldi	r30, 0xF1	; 241
     9a0:	f0 e0       	ldi	r31, 0x00	; 0
     9a2:	30 81       	ld	r19, Z
				Data.Bytes[1] = UEDATX;
     9a4:	20 81       	ld	r18, Z
				Data.Bytes[2] = UEDATX;
     9a6:	90 81       	ld	r25, Z
				Data.Bytes[3] = UEDATX;
     9a8:	80 81       	ld	r24, Z
				{
					if (USB_DeviceState == DEVICE_STATE_Unattached)
					  return;
				}

				CDCInterfaceInfo->State.LineEncoding.BaudRateBPS = Endpoint_Read_32_LE();
     9aa:	3c 8b       	std	Y+20, r19	; 0x14
     9ac:	2d 8b       	std	Y+21, r18	; 0x15
     9ae:	9e 8b       	std	Y+22, r25	; 0x16
     9b0:	8f 8b       	std	Y+23, r24	; 0x17
			 *  \return Next byte in the currently selected endpoint's FIFO buffer.
			 */
			static inline uint8_t Endpoint_Read_8(void) ATTR_WARN_UNUSED_RESULT ATTR_ALWAYS_INLINE;
			static inline uint8_t Endpoint_Read_8(void)
			{
				return UEDATX;
     9b2:	80 81       	ld	r24, Z
				CDCInterfaceInfo->State.LineEncoding.CharFormat  = Endpoint_Read_8();
     9b4:	88 8f       	std	Y+24, r24	; 0x18
     9b6:	80 81       	ld	r24, Z
				CDCInterfaceInfo->State.LineEncoding.ParityType  = Endpoint_Read_8();
     9b8:	89 8f       	std	Y+25, r24	; 0x19
     9ba:	80 81       	ld	r24, Z
				CDCInterfaceInfo->State.LineEncoding.DataBits    = Endpoint_Read_8();
     9bc:	8a 8f       	std	Y+26, r24	; 0x1a
			 */
			static inline void Endpoint_ClearOUT(void) ATTR_ALWAYS_INLINE;
			static inline void Endpoint_ClearOUT(void)
			{
				#if !defined(CONTROL_ONLY_DEVICE)
					UEINTX &= ~((1 << RXOUTI) | (1 << FIFOCON));
     9be:	e8 ee       	ldi	r30, 0xE8	; 232
     9c0:	f0 e0       	ldi	r31, 0x00	; 0
     9c2:	80 81       	ld	r24, Z
     9c4:	8b 77       	andi	r24, 0x7B	; 123
     9c6:	80 83       	st	Z, r24

				Endpoint_ClearOUT();
				Endpoint_ClearStatusStage();
     9c8:	da d1       	rcall	.+948    	; 0xd7e <Endpoint_ClearStatusStage>

				EVENT_CDC_Device_LineEncodingChanged(CDCInterfaceInfo);
     9ca:	ce 01       	movw	r24, r28
     9cc:	0e 94 2c 12 	call	0x2458	; 0x2458 <EVENT_CDC_Device_LineEncodingChanged>
     9d0:	21 c0       	rjmp	.+66     	; 0xa14 <CDC_Device_ProcessControlRequest+0x138>
			}

			break;
		case CDC_REQ_SetControlLineState:
			if (USB_ControlRequest.bmRequestType == (REQDIR_HOSTTODEVICE | REQTYPE_CLASS | REQREC_INTERFACE))
     9d2:	80 91 76 04 	lds	r24, 0x0476
     9d6:	81 32       	cpi	r24, 0x21	; 33
     9d8:	e9 f4       	brne	.+58     	; 0xa14 <CDC_Device_ProcessControlRequest+0x138>
			 *  \note This is not applicable for non CONTROL type endpoints.
			 */
			static inline void Endpoint_ClearSETUP(void) ATTR_ALWAYS_INLINE;
			static inline void Endpoint_ClearSETUP(void)
			{
				UEINTX &= ~(1 << RXSTPI);
     9da:	e8 ee       	ldi	r30, 0xE8	; 232
     9dc:	f0 e0       	ldi	r31, 0x00	; 0
     9de:	80 81       	ld	r24, Z
     9e0:	87 7f       	andi	r24, 0xF7	; 247
     9e2:	80 83       	st	Z, r24
			{
				Endpoint_ClearSETUP();
				Endpoint_ClearStatusStage();
     9e4:	cc d1       	rcall	.+920    	; 0xd7e <Endpoint_ClearStatusStage>

				CDCInterfaceInfo->State.ControlLineStates.HostToDevice = USB_ControlRequest.wValue;
     9e6:	80 91 78 04 	lds	r24, 0x0478
     9ea:	90 91 79 04 	lds	r25, 0x0479
     9ee:	99 8b       	std	Y+17, r25	; 0x11
     9f0:	88 8b       	std	Y+16, r24	; 0x10

				EVENT_CDC_Device_ControLineStateChanged(CDCInterfaceInfo);
     9f2:	ce 01       	movw	r24, r28
     9f4:	72 df       	rcall	.-284    	; 0x8da <CDC_Device_Event_Stub>
     9f6:	0e c0       	rjmp	.+28     	; 0xa14 <CDC_Device_ProcessControlRequest+0x138>
			}

			break;
		case CDC_REQ_SendBreak:
			if (USB_ControlRequest.bmRequestType == (REQDIR_HOSTTODEVICE | REQTYPE_CLASS | REQREC_INTERFACE))
     9f8:	80 91 76 04 	lds	r24, 0x0476
     9fc:	81 32       	cpi	r24, 0x21	; 33
     9fe:	51 f4       	brne	.+20     	; 0xa14 <CDC_Device_ProcessControlRequest+0x138>
     a00:	e8 ee       	ldi	r30, 0xE8	; 232
     a02:	f0 e0       	ldi	r31, 0x00	; 0
     a04:	80 81       	ld	r24, Z
     a06:	87 7f       	andi	r24, 0xF7	; 247
     a08:	80 83       	st	Z, r24
			{
				Endpoint_ClearSETUP();
				Endpoint_ClearStatusStage();
     a0a:	b9 d1       	rcall	.+882    	; 0xd7e <Endpoint_ClearStatusStage>

				EVENT_CDC_Device_BreakSent(CDCInterfaceInfo, (uint8_t)USB_ControlRequest.wValue);
     a0c:	60 91 78 04 	lds	r22, 0x0478
     a10:	ce 01       	movw	r24, r28
     a12:	63 df       	rcall	.-314    	; 0x8da <CDC_Device_Event_Stub>
			}

			break;
	}
}
     a14:	df 91       	pop	r29
     a16:	cf 91       	pop	r28
     a18:	08 95       	ret

00000a1a <Endpoint_Write_Control_Stream_LE>:
		else if (USB_DeviceState_LCL == DEVICE_STATE_Suspended)
		  return ENDPOINT_RWCSTREAM_BusSuspended;
	}

	return ENDPOINT_RWCSTREAM_NoError;
}
     a1a:	0f 93       	push	r16
     a1c:	1f 93       	push	r17
     a1e:	cf 93       	push	r28
     a20:	df 93       	push	r29
     a22:	20 91 7c 04 	lds	r18, 0x047C
     a26:	30 91 7d 04 	lds	r19, 0x047D
     a2a:	26 17       	cp	r18, r22
     a2c:	37 07       	cpc	r19, r23
     a2e:	58 f0       	brcs	.+22     	; 0xa46 <Endpoint_Write_Control_Stream_LE+0x2c>
     a30:	61 15       	cp	r22, r1
     a32:	71 05       	cpc	r23, r1
     a34:	39 f4       	brne	.+14     	; 0xa44 <Endpoint_Write_Control_Stream_LE+0x2a>
     a36:	e8 ee       	ldi	r30, 0xE8	; 232
     a38:	f0 e0       	ldi	r31, 0x00	; 0
     a3a:	20 81       	ld	r18, Z
     a3c:	2e 77       	andi	r18, 0x7E	; 126
     a3e:	20 83       	st	Z, r18
     a40:	9b 01       	movw	r18, r22
     a42:	01 c0       	rjmp	.+2      	; 0xa46 <Endpoint_Write_Control_Stream_LE+0x2c>
     a44:	9b 01       	movw	r18, r22
     a46:	a0 e0       	ldi	r26, 0x00	; 0
     a48:	e8 ee       	ldi	r30, 0xE8	; 232
     a4a:	f0 e0       	ldi	r31, 0x00	; 0
     a4c:	62 ef       	ldi	r22, 0xF2	; 242
     a4e:	70 e0       	ldi	r23, 0x00	; 0
     a50:	c1 ef       	ldi	r28, 0xF1	; 241
     a52:	d0 e0       	ldi	r29, 0x00	; 0
     a54:	11 e0       	ldi	r17, 0x01	; 1
     a56:	00 e0       	ldi	r16, 0x00	; 0
     a58:	34 c0       	rjmp	.+104    	; 0xac2 <Endpoint_Write_Control_Stream_LE+0xa8>
     a5a:	4e b3       	in	r20, 0x1e	; 30
     a5c:	44 23       	and	r20, r20
     a5e:	09 f4       	brne	.+2      	; 0xa62 <Endpoint_Write_Control_Stream_LE+0x48>
     a60:	43 c0       	rjmp	.+134    	; 0xae8 <Endpoint_Write_Control_Stream_LE+0xce>
     a62:	45 30       	cpi	r20, 0x05	; 5
     a64:	09 f4       	brne	.+2      	; 0xa68 <Endpoint_Write_Control_Stream_LE+0x4e>
     a66:	42 c0       	rjmp	.+132    	; 0xaec <Endpoint_Write_Control_Stream_LE+0xd2>
     a68:	40 81       	ld	r20, Z
     a6a:	43 fd       	sbrc	r20, 3
     a6c:	41 c0       	rjmp	.+130    	; 0xaf0 <Endpoint_Write_Control_Stream_LE+0xd6>
     a6e:	40 81       	ld	r20, Z
     a70:	42 ff       	sbrs	r20, 2
     a72:	03 c0       	rjmp	.+6      	; 0xa7a <Endpoint_Write_Control_Stream_LE+0x60>
     a74:	e8 ee       	ldi	r30, 0xE8	; 232
     a76:	f0 e0       	ldi	r31, 0x00	; 0
     a78:	32 c0       	rjmp	.+100    	; 0xade <Endpoint_Write_Control_Stream_LE+0xc4>
     a7a:	40 81       	ld	r20, Z
     a7c:	40 ff       	sbrs	r20, 0
     a7e:	21 c0       	rjmp	.+66     	; 0xac2 <Endpoint_Write_Control_Stream_LE+0xa8>
     a80:	db 01       	movw	r26, r22
     a82:	4d 91       	ld	r20, X+
     a84:	5c 91       	ld	r21, X
     a86:	21 15       	cp	r18, r1
     a88:	31 05       	cpc	r19, r1
     a8a:	99 f0       	breq	.+38     	; 0xab2 <Endpoint_Write_Control_Stream_LE+0x98>
     a8c:	48 30       	cpi	r20, 0x08	; 8
     a8e:	51 05       	cpc	r21, r1
     a90:	80 f4       	brcc	.+32     	; 0xab2 <Endpoint_Write_Control_Stream_LE+0x98>
     a92:	a8 2f       	mov	r26, r24
     a94:	b9 2f       	mov	r27, r25
     a96:	8d 91       	ld	r24, X+
     a98:	88 83       	st	Y, r24
     a9a:	8a 2f       	mov	r24, r26
     a9c:	9b 2f       	mov	r25, r27
     a9e:	21 50       	subi	r18, 0x01	; 1
     aa0:	31 09       	sbc	r19, r1
     aa2:	4f 5f       	subi	r20, 0xFF	; 255
     aa4:	5f 4f       	sbci	r21, 0xFF	; 255
     aa6:	21 15       	cp	r18, r1
     aa8:	31 05       	cpc	r19, r1
     aaa:	19 f0       	breq	.+6      	; 0xab2 <Endpoint_Write_Control_Stream_LE+0x98>
     aac:	48 30       	cpi	r20, 0x08	; 8
     aae:	51 05       	cpc	r21, r1
     ab0:	91 f7       	brne	.-28     	; 0xa96 <Endpoint_Write_Control_Stream_LE+0x7c>
     ab2:	a1 2f       	mov	r26, r17
     ab4:	48 30       	cpi	r20, 0x08	; 8
     ab6:	51 05       	cpc	r21, r1
     ab8:	09 f0       	breq	.+2      	; 0xabc <Endpoint_Write_Control_Stream_LE+0xa2>
     aba:	a0 2f       	mov	r26, r16
     abc:	40 81       	ld	r20, Z
     abe:	4e 77       	andi	r20, 0x7E	; 126
     ac0:	40 83       	st	Z, r20
     ac2:	21 15       	cp	r18, r1
     ac4:	31 05       	cpc	r19, r1
     ac6:	49 f6       	brne	.-110    	; 0xa5a <Endpoint_Write_Control_Stream_LE+0x40>
     ac8:	a1 11       	cpse	r26, r1
     aca:	c7 cf       	rjmp	.-114    	; 0xa5a <Endpoint_Write_Control_Stream_LE+0x40>
     acc:	d3 cf       	rjmp	.-90     	; 0xa74 <Endpoint_Write_Control_Stream_LE+0x5a>
     ace:	8e b3       	in	r24, 0x1e	; 30
     ad0:	88 23       	and	r24, r24
     ad2:	81 f0       	breq	.+32     	; 0xaf4 <Endpoint_Write_Control_Stream_LE+0xda>
     ad4:	85 30       	cpi	r24, 0x05	; 5
     ad6:	81 f0       	breq	.+32     	; 0xaf8 <Endpoint_Write_Control_Stream_LE+0xde>
     ad8:	80 81       	ld	r24, Z
     ada:	83 fd       	sbrc	r24, 3
     adc:	0f c0       	rjmp	.+30     	; 0xafc <Endpoint_Write_Control_Stream_LE+0xe2>
     ade:	80 81       	ld	r24, Z
     ae0:	82 ff       	sbrs	r24, 2
     ae2:	f5 cf       	rjmp	.-22     	; 0xace <Endpoint_Write_Control_Stream_LE+0xb4>
     ae4:	80 e0       	ldi	r24, 0x00	; 0
     ae6:	0b c0       	rjmp	.+22     	; 0xafe <Endpoint_Write_Control_Stream_LE+0xe4>
     ae8:	82 e0       	ldi	r24, 0x02	; 2
     aea:	09 c0       	rjmp	.+18     	; 0xafe <Endpoint_Write_Control_Stream_LE+0xe4>
     aec:	83 e0       	ldi	r24, 0x03	; 3
     aee:	07 c0       	rjmp	.+14     	; 0xafe <Endpoint_Write_Control_Stream_LE+0xe4>
     af0:	81 e0       	ldi	r24, 0x01	; 1
     af2:	05 c0       	rjmp	.+10     	; 0xafe <Endpoint_Write_Control_Stream_LE+0xe4>
     af4:	82 e0       	ldi	r24, 0x02	; 2
     af6:	03 c0       	rjmp	.+6      	; 0xafe <Endpoint_Write_Control_Stream_LE+0xe4>
     af8:	83 e0       	ldi	r24, 0x03	; 3
     afa:	01 c0       	rjmp	.+2      	; 0xafe <Endpoint_Write_Control_Stream_LE+0xe4>
     afc:	81 e0       	ldi	r24, 0x01	; 1
     afe:	df 91       	pop	r29
     b00:	cf 91       	pop	r28
     b02:	1f 91       	pop	r17
     b04:	0f 91       	pop	r16
     b06:	08 95       	ret

00000b08 <Endpoint_Write_Control_PStream_LE>:

#if defined(TEMPLATE_FUNC_NAME)

uint8_t TEMPLATE_FUNC_NAME (const void* const Buffer,
                            uint16_t Length)
{
     b08:	ef 92       	push	r14
     b0a:	ff 92       	push	r15
     b0c:	1f 93       	push	r17
     b0e:	cf 93       	push	r28
     b10:	df 93       	push	r29
	uint8_t* DataStream     = ((uint8_t*)Buffer + TEMPLATE_BUFFER_OFFSET(Length));
	bool     LastPacketFull = false;

	if (Length > USB_ControlRequest.wLength)
     b12:	20 91 7c 04 	lds	r18, 0x047C
     b16:	30 91 7d 04 	lds	r19, 0x047D
     b1a:	26 17       	cp	r18, r22
     b1c:	37 07       	cpc	r19, r23
     b1e:	58 f0       	brcs	.+22     	; 0xb36 <Endpoint_Write_Control_PStream_LE+0x2e>
	  Length = USB_ControlRequest.wLength;
	else if (!(Length))
     b20:	61 15       	cp	r22, r1
     b22:	71 05       	cpc	r23, r1
     b24:	39 f4       	brne	.+14     	; 0xb34 <Endpoint_Write_Control_PStream_LE+0x2c>
			 */
			static inline void Endpoint_ClearIN(void) ATTR_ALWAYS_INLINE;
			static inline void Endpoint_ClearIN(void)
			{
				#if !defined(CONTROL_ONLY_DEVICE)
					UEINTX &= ~((1 << TXINI) | (1 << FIFOCON));
     b26:	e8 ee       	ldi	r30, 0xE8	; 232
     b28:	f0 e0       	ldi	r31, 0x00	; 0
     b2a:	20 81       	ld	r18, Z
     b2c:	2e 77       	andi	r18, 0x7E	; 126
     b2e:	20 83       	st	Z, r18
     b30:	9b 01       	movw	r18, r22
     b32:	01 c0       	rjmp	.+2      	; 0xb36 <Endpoint_Write_Control_PStream_LE+0x2e>
     b34:	9b 01       	movw	r18, r22
     b36:	e8 2f       	mov	r30, r24
     b38:	f9 2f       	mov	r31, r25
     b3a:	60 e0       	ldi	r22, 0x00	; 0
			 *  \return Boolean \c true if the selected endpoint has received a SETUP packet, \c false otherwise.
			 */
			static inline bool Endpoint_IsSETUPReceived(void) ATTR_WARN_UNUSED_RESULT ATTR_ALWAYS_INLINE;
			static inline bool Endpoint_IsSETUPReceived(void)
			{
				return ((UEINTX & (1 << RXSTPI)) ? true : false);
     b3c:	a8 ee       	ldi	r26, 0xE8	; 232
     b3e:	b0 e0       	ldi	r27, 0x00	; 0
			 */
			static inline uint16_t Endpoint_BytesInEndpoint(void) ATTR_WARN_UNUSED_RESULT ATTR_ALWAYS_INLINE;
			static inline uint16_t Endpoint_BytesInEndpoint(void)
			{
				#if (defined(USB_SERIES_6_AVR) || defined(USB_SERIES_7_AVR))
					return UEBCX;
     b40:	42 ef       	ldi	r20, 0xF2	; 242
     b42:	50 e0       	ldi	r21, 0x00	; 0
			 *  \param[in] Data  Data to write into the the currently selected endpoint's FIFO buffer.
			 */
			static inline void Endpoint_Write_8(const uint8_t Data) ATTR_ALWAYS_INLINE;
			static inline void Endpoint_Write_8(const uint8_t Data)
			{
				UEDATX = Data;
     b44:	0f 2e       	mov	r0, r31
     b46:	f1 ef       	ldi	r31, 0xF1	; 241
     b48:	ef 2e       	mov	r14, r31
     b4a:	f1 2c       	mov	r15, r1
     b4c:	f0 2d       	mov	r31, r0
				TEMPLATE_BUFFER_MOVE(DataStream, 1);
				Length--;
				BytesInEndpoint++;
			}

			LastPacketFull = (BytesInEndpoint == USB_Device_ControlEndpointSize);
     b4e:	71 e0       	ldi	r23, 0x01	; 1
     b50:	10 e0       	ldi	r17, 0x00	; 0
     b52:	30 c0       	rjmp	.+96     	; 0xbb4 <Endpoint_Write_Control_PStream_LE+0xac>
	else if (!(Length))
	  Endpoint_ClearIN();

	while (Length || LastPacketFull)
	{
		uint8_t USB_DeviceState_LCL = USB_DeviceState;
     b54:	8e b3       	in	r24, 0x1e	; 30

		if (USB_DeviceState_LCL == DEVICE_STATE_Unattached)
     b56:	88 23       	and	r24, r24
     b58:	09 f4       	brne	.+2      	; 0xb5c <Endpoint_Write_Control_PStream_LE+0x54>
     b5a:	3f c0       	rjmp	.+126    	; 0xbda <Endpoint_Write_Control_PStream_LE+0xd2>
		  return ENDPOINT_RWCSTREAM_DeviceDisconnected;
		else if (USB_DeviceState_LCL == DEVICE_STATE_Suspended)
     b5c:	85 30       	cpi	r24, 0x05	; 5
     b5e:	09 f4       	brne	.+2      	; 0xb62 <Endpoint_Write_Control_PStream_LE+0x5a>
     b60:	3e c0       	rjmp	.+124    	; 0xbde <Endpoint_Write_Control_PStream_LE+0xd6>
			 *  \return Boolean \c true if the selected endpoint has received a SETUP packet, \c false otherwise.
			 */
			static inline bool Endpoint_IsSETUPReceived(void) ATTR_WARN_UNUSED_RESULT ATTR_ALWAYS_INLINE;
			static inline bool Endpoint_IsSETUPReceived(void)
			{
				return ((UEINTX & (1 << RXSTPI)) ? true : false);
     b62:	8c 91       	ld	r24, X
		  return ENDPOINT_RWCSTREAM_BusSuspended;
		else if (Endpoint_IsSETUPReceived())
     b64:	83 fd       	sbrc	r24, 3
     b66:	3d c0       	rjmp	.+122    	; 0xbe2 <Endpoint_Write_Control_PStream_LE+0xda>
			 *  \return Boolean \c true if current endpoint is has received an OUT packet, \c false otherwise.
			 */
			static inline bool Endpoint_IsOUTReceived(void) ATTR_WARN_UNUSED_RESULT ATTR_ALWAYS_INLINE;
			static inline bool Endpoint_IsOUTReceived(void)
			{
				return ((UEINTX & (1 << RXOUTI)) ? true : false);
     b68:	8c 91       	ld	r24, X
		  return ENDPOINT_RWCSTREAM_HostAborted;
		else if (Endpoint_IsOUTReceived())
     b6a:	82 ff       	sbrs	r24, 2
     b6c:	03 c0       	rjmp	.+6      	; 0xb74 <Endpoint_Write_Control_PStream_LE+0x6c>
     b6e:	e8 ee       	ldi	r30, 0xE8	; 232
     b70:	f0 e0       	ldi	r31, 0x00	; 0
     b72:	2e c0       	rjmp	.+92     	; 0xbd0 <Endpoint_Write_Control_PStream_LE+0xc8>
			 *  \return Boolean \c true if the current endpoint is ready for an IN packet, \c false otherwise.
			 */
			static inline bool Endpoint_IsINReady(void) ATTR_WARN_UNUSED_RESULT ATTR_ALWAYS_INLINE;
			static inline bool Endpoint_IsINReady(void)
			{
				return ((UEINTX & (1 << TXINI)) ? true : false);
     b74:	8c 91       	ld	r24, X
		  break;

		if (Endpoint_IsINReady())
     b76:	80 ff       	sbrs	r24, 0
     b78:	1d c0       	rjmp	.+58     	; 0xbb4 <Endpoint_Write_Control_PStream_LE+0xac>
			 */
			static inline uint16_t Endpoint_BytesInEndpoint(void) ATTR_WARN_UNUSED_RESULT ATTR_ALWAYS_INLINE;
			static inline uint16_t Endpoint_BytesInEndpoint(void)
			{
				#if (defined(USB_SERIES_6_AVR) || defined(USB_SERIES_7_AVR))
					return UEBCX;
     b7a:	ea 01       	movw	r28, r20
     b7c:	88 81       	ld	r24, Y
     b7e:	99 81       	ldd	r25, Y+1	; 0x01
		{
			uint16_t BytesInEndpoint = Endpoint_BytesInEndpoint();

			while (Length && (BytesInEndpoint < USB_Device_ControlEndpointSize))
     b80:	21 15       	cp	r18, r1
     b82:	31 05       	cpc	r19, r1
     b84:	81 f0       	breq	.+32     	; 0xba6 <Endpoint_Write_Control_PStream_LE+0x9e>
     b86:	88 30       	cpi	r24, 0x08	; 8
     b88:	91 05       	cpc	r25, r1
     b8a:	68 f4       	brcc	.+26     	; 0xba6 <Endpoint_Write_Control_PStream_LE+0x9e>
			{
				TEMPLATE_TRANSFER_BYTE(DataStream);
     b8c:	64 91       	lpm	r22, Z
			 *  \param[in] Data  Data to write into the the currently selected endpoint's FIFO buffer.
			 */
			static inline void Endpoint_Write_8(const uint8_t Data) ATTR_ALWAYS_INLINE;
			static inline void Endpoint_Write_8(const uint8_t Data)
			{
				UEDATX = Data;
     b8e:	e7 01       	movw	r28, r14
     b90:	68 83       	st	Y, r22
				TEMPLATE_BUFFER_MOVE(DataStream, 1);
     b92:	31 96       	adiw	r30, 0x01	; 1
				Length--;
     b94:	21 50       	subi	r18, 0x01	; 1
     b96:	31 09       	sbc	r19, r1
				BytesInEndpoint++;
     b98:	01 96       	adiw	r24, 0x01	; 1

		if (Endpoint_IsINReady())
		{
			uint16_t BytesInEndpoint = Endpoint_BytesInEndpoint();

			while (Length && (BytesInEndpoint < USB_Device_ControlEndpointSize))
     b9a:	21 15       	cp	r18, r1
     b9c:	31 05       	cpc	r19, r1
     b9e:	19 f0       	breq	.+6      	; 0xba6 <Endpoint_Write_Control_PStream_LE+0x9e>
     ba0:	88 30       	cpi	r24, 0x08	; 8
     ba2:	91 05       	cpc	r25, r1
     ba4:	99 f7       	brne	.-26     	; 0xb8c <Endpoint_Write_Control_PStream_LE+0x84>
				TEMPLATE_BUFFER_MOVE(DataStream, 1);
				Length--;
				BytesInEndpoint++;
			}

			LastPacketFull = (BytesInEndpoint == USB_Device_ControlEndpointSize);
     ba6:	67 2f       	mov	r22, r23
     ba8:	08 97       	sbiw	r24, 0x08	; 8
     baa:	09 f0       	breq	.+2      	; 0xbae <Endpoint_Write_Control_PStream_LE+0xa6>
     bac:	61 2f       	mov	r22, r17
			 */
			static inline void Endpoint_ClearIN(void) ATTR_ALWAYS_INLINE;
			static inline void Endpoint_ClearIN(void)
			{
				#if !defined(CONTROL_ONLY_DEVICE)
					UEINTX &= ~((1 << TXINI) | (1 << FIFOCON));
     bae:	8c 91       	ld	r24, X
     bb0:	8e 77       	andi	r24, 0x7E	; 126
     bb2:	8c 93       	st	X, r24
	if (Length > USB_ControlRequest.wLength)
	  Length = USB_ControlRequest.wLength;
	else if (!(Length))
	  Endpoint_ClearIN();

	while (Length || LastPacketFull)
     bb4:	21 15       	cp	r18, r1
     bb6:	31 05       	cpc	r19, r1
     bb8:	69 f6       	brne	.-102    	; 0xb54 <Endpoint_Write_Control_PStream_LE+0x4c>
     bba:	61 11       	cpse	r22, r1
     bbc:	cb cf       	rjmp	.-106    	; 0xb54 <Endpoint_Write_Control_PStream_LE+0x4c>
     bbe:	d7 cf       	rjmp	.-82     	; 0xb6e <Endpoint_Write_Control_PStream_LE+0x66>
		}
	}

	while (!(Endpoint_IsOUTReceived()))
	{
		uint8_t USB_DeviceState_LCL = USB_DeviceState;
     bc0:	8e b3       	in	r24, 0x1e	; 30

		if (USB_DeviceState_LCL == DEVICE_STATE_Unattached)
     bc2:	88 23       	and	r24, r24
     bc4:	81 f0       	breq	.+32     	; 0xbe6 <Endpoint_Write_Control_PStream_LE+0xde>
		  return ENDPOINT_RWCSTREAM_DeviceDisconnected;
		else if (USB_DeviceState_LCL == DEVICE_STATE_Suspended)
     bc6:	85 30       	cpi	r24, 0x05	; 5
     bc8:	81 f0       	breq	.+32     	; 0xbea <Endpoint_Write_Control_PStream_LE+0xe2>
			 *  \return Boolean \c true if the selected endpoint has received a SETUP packet, \c false otherwise.
			 */
			static inline bool Endpoint_IsSETUPReceived(void) ATTR_WARN_UNUSED_RESULT ATTR_ALWAYS_INLINE;
			static inline bool Endpoint_IsSETUPReceived(void)
			{
				return ((UEINTX & (1 << RXSTPI)) ? true : false);
     bca:	80 81       	ld	r24, Z
		  return ENDPOINT_RWCSTREAM_BusSuspended;
		else if (Endpoint_IsSETUPReceived())
     bcc:	83 fd       	sbrc	r24, 3
     bce:	0f c0       	rjmp	.+30     	; 0xbee <Endpoint_Write_Control_PStream_LE+0xe6>
			 *  \return Boolean \c true if current endpoint is has received an OUT packet, \c false otherwise.
			 */
			static inline bool Endpoint_IsOUTReceived(void) ATTR_WARN_UNUSED_RESULT ATTR_ALWAYS_INLINE;
			static inline bool Endpoint_IsOUTReceived(void)
			{
				return ((UEINTX & (1 << RXOUTI)) ? true : false);
     bd0:	80 81       	ld	r24, Z
			LastPacketFull = (BytesInEndpoint == USB_Device_ControlEndpointSize);
			Endpoint_ClearIN();
		}
	}

	while (!(Endpoint_IsOUTReceived()))
     bd2:	82 ff       	sbrs	r24, 2
     bd4:	f5 cf       	rjmp	.-22     	; 0xbc0 <Endpoint_Write_Control_PStream_LE+0xb8>
		  return ENDPOINT_RWCSTREAM_BusSuspended;
		else if (Endpoint_IsSETUPReceived())
		  return ENDPOINT_RWCSTREAM_HostAborted;
	}

	return ENDPOINT_RWCSTREAM_NoError;
     bd6:	80 e0       	ldi	r24, 0x00	; 0
     bd8:	0b c0       	rjmp	.+22     	; 0xbf0 <Endpoint_Write_Control_PStream_LE+0xe8>
	while (Length || LastPacketFull)
	{
		uint8_t USB_DeviceState_LCL = USB_DeviceState;

		if (USB_DeviceState_LCL == DEVICE_STATE_Unattached)
		  return ENDPOINT_RWCSTREAM_DeviceDisconnected;
     bda:	82 e0       	ldi	r24, 0x02	; 2
     bdc:	09 c0       	rjmp	.+18     	; 0xbf0 <Endpoint_Write_Control_PStream_LE+0xe8>
		else if (USB_DeviceState_LCL == DEVICE_STATE_Suspended)
		  return ENDPOINT_RWCSTREAM_BusSuspended;
     bde:	83 e0       	ldi	r24, 0x03	; 3
     be0:	07 c0       	rjmp	.+14     	; 0xbf0 <Endpoint_Write_Control_PStream_LE+0xe8>
		else if (Endpoint_IsSETUPReceived())
		  return ENDPOINT_RWCSTREAM_HostAborted;
     be2:	81 e0       	ldi	r24, 0x01	; 1
     be4:	05 c0       	rjmp	.+10     	; 0xbf0 <Endpoint_Write_Control_PStream_LE+0xe8>
	while (!(Endpoint_IsOUTReceived()))
	{
		uint8_t USB_DeviceState_LCL = USB_DeviceState;

		if (USB_DeviceState_LCL == DEVICE_STATE_Unattached)
		  return ENDPOINT_RWCSTREAM_DeviceDisconnected;
     be6:	82 e0       	ldi	r24, 0x02	; 2
     be8:	03 c0       	rjmp	.+6      	; 0xbf0 <Endpoint_Write_Control_PStream_LE+0xe8>
		else if (USB_DeviceState_LCL == DEVICE_STATE_Suspended)
		  return ENDPOINT_RWCSTREAM_BusSuspended;
     bea:	83 e0       	ldi	r24, 0x03	; 3
     bec:	01 c0       	rjmp	.+2      	; 0xbf0 <Endpoint_Write_Control_PStream_LE+0xe8>
		else if (Endpoint_IsSETUPReceived())
		  return ENDPOINT_RWCSTREAM_HostAborted;
     bee:	81 e0       	ldi	r24, 0x01	; 1
	}

	return ENDPOINT_RWCSTREAM_NoError;
}
     bf0:	df 91       	pop	r29
     bf2:	cf 91       	pop	r28
     bf4:	1f 91       	pop	r17
     bf6:	ff 90       	pop	r15
     bf8:	ef 90       	pop	r14
     bfa:	08 95       	ret

00000bfc <Endpoint_ConfigureEndpoint_Prv>:
		UEIENX  = 0;
		UEINTX  = 0;
		UECFG1X = 0;
		Endpoint_DisableEndpoint();
	}
}
     bfc:	8f 92       	push	r8
     bfe:	9f 92       	push	r9
     c00:	bf 92       	push	r11
     c02:	cf 92       	push	r12
     c04:	df 92       	push	r13
     c06:	ef 92       	push	r14
     c08:	ff 92       	push	r15
     c0a:	0f 93       	push	r16
     c0c:	1f 93       	push	r17
     c0e:	cf 93       	push	r28
     c10:	df 93       	push	r29
     c12:	87 30       	cpi	r24, 0x07	; 7
     c14:	70 f1       	brcs	.+92     	; 0xc72 <Endpoint_ConfigureEndpoint_Prv+0x76>
     c16:	26 c0       	rjmp	.+76     	; 0xc64 <Endpoint_ConfigureEndpoint_Prv+0x68>
     c18:	59 2f       	mov	r21, r25
     c1a:	5f 70       	andi	r21, 0x0F	; 15
     c1c:	e8 01       	movw	r28, r16
     c1e:	58 83       	st	Y, r21
     c20:	89 17       	cp	r24, r25
     c22:	31 f0       	breq	.+12     	; 0xc30 <Endpoint_ConfigureEndpoint_Prv+0x34>
     c24:	e9 01       	movw	r28, r18
     c26:	d8 80       	ld	r13, Y
     c28:	50 81       	ld	r21, Z
     c2a:	e4 01       	movw	r28, r8
     c2c:	78 81       	ld	r23, Y
     c2e:	03 c0       	rjmp	.+6      	; 0xc36 <Endpoint_ConfigureEndpoint_Prv+0x3a>
     c30:	5b 2d       	mov	r21, r11
     c32:	d6 2e       	mov	r13, r22
     c34:	7c 2d       	mov	r23, r12
     c36:	51 ff       	sbrs	r21, 1
     c38:	12 c0       	rjmp	.+36     	; 0xc5e <Endpoint_ConfigureEndpoint_Prv+0x62>
     c3a:	4c 91       	ld	r20, X
     c3c:	4e 7f       	andi	r20, 0xFE	; 254
     c3e:	4c 93       	st	X, r20
     c40:	40 81       	ld	r20, Z
     c42:	4d 7f       	andi	r20, 0xFD	; 253
     c44:	40 83       	st	Z, r20
     c46:	4c 91       	ld	r20, X
     c48:	41 60       	ori	r20, 0x01	; 1
     c4a:	4c 93       	st	X, r20
     c4c:	e9 01       	movw	r28, r18
     c4e:	d8 82       	st	Y, r13
     c50:	50 83       	st	Z, r21
     c52:	e4 01       	movw	r28, r8
     c54:	78 83       	st	Y, r23
     c56:	e7 01       	movw	r28, r14
     c58:	58 81       	ld	r21, Y
     c5a:	55 23       	and	r21, r21
     c5c:	44 f4       	brge	.+16     	; 0xc6e <Endpoint_ConfigureEndpoint_Prv+0x72>
     c5e:	9f 5f       	subi	r25, 0xFF	; 255
     c60:	97 30       	cpi	r25, 0x07	; 7
     c62:	d1 f6       	brne	.-76     	; 0xc18 <Endpoint_ConfigureEndpoint_Prv+0x1c>
     c64:	8f 70       	andi	r24, 0x0F	; 15
     c66:	80 93 e9 00 	sts	0x00E9, r24
     c6a:	81 e0       	ldi	r24, 0x01	; 1
     c6c:	1f c0       	rjmp	.+62     	; 0xcac <Endpoint_ConfigureEndpoint_Prv+0xb0>
     c6e:	80 e0       	ldi	r24, 0x00	; 0
     c70:	1d c0       	rjmp	.+58     	; 0xcac <Endpoint_ConfigureEndpoint_Prv+0xb0>
     c72:	98 2f       	mov	r25, r24
     c74:	9f 70       	andi	r25, 0x0F	; 15
     c76:	90 93 e9 00 	sts	0x00E9, r25
     c7a:	98 2f       	mov	r25, r24
     c7c:	54 2f       	mov	r21, r20
     c7e:	d6 2e       	mov	r13, r22
     c80:	70 e0       	ldi	r23, 0x00	; 0
     c82:	ab ee       	ldi	r26, 0xEB	; 235
     c84:	b0 e0       	ldi	r27, 0x00	; 0
     c86:	ed ee       	ldi	r30, 0xED	; 237
     c88:	f0 e0       	ldi	r31, 0x00	; 0
     c8a:	2c ee       	ldi	r18, 0xEC	; 236
     c8c:	30 e0       	ldi	r19, 0x00	; 0
     c8e:	0f 2e       	mov	r0, r31
     c90:	f0 ef       	ldi	r31, 0xF0	; 240
     c92:	8f 2e       	mov	r8, r31
     c94:	91 2c       	mov	r9, r1
     c96:	f0 2d       	mov	r31, r0
     c98:	0f 2e       	mov	r0, r31
     c9a:	fe ee       	ldi	r31, 0xEE	; 238
     c9c:	ef 2e       	mov	r14, r31
     c9e:	f1 2c       	mov	r15, r1
     ca0:	f0 2d       	mov	r31, r0
     ca2:	09 ee       	ldi	r16, 0xE9	; 233
     ca4:	10 e0       	ldi	r17, 0x00	; 0
     ca6:	b4 2e       	mov	r11, r20
     ca8:	c1 2c       	mov	r12, r1
     caa:	c5 cf       	rjmp	.-118    	; 0xc36 <Endpoint_ConfigureEndpoint_Prv+0x3a>
     cac:	df 91       	pop	r29
     cae:	cf 91       	pop	r28
     cb0:	1f 91       	pop	r17
     cb2:	0f 91       	pop	r16
     cb4:	ff 90       	pop	r15
     cb6:	ef 90       	pop	r14
     cb8:	df 90       	pop	r13
     cba:	cf 90       	pop	r12
     cbc:	bf 90       	pop	r11
     cbe:	9f 90       	pop	r9
     cc0:	8f 90       	pop	r8
     cc2:	08 95       	ret

00000cc4 <Endpoint_ConfigureEndpointTable>:
     cc4:	bf 92       	push	r11
     cc6:	cf 92       	push	r12
     cc8:	df 92       	push	r13
     cca:	ef 92       	push	r14
     ccc:	ff 92       	push	r15
     cce:	0f 93       	push	r16
     cd0:	1f 93       	push	r17
     cd2:	cf 93       	push	r28
     cd4:	df 93       	push	r29
     cd6:	06 2f       	mov	r16, r22
     cd8:	66 23       	and	r22, r22
     cda:	09 f4       	brne	.+2      	; 0xcde <Endpoint_ConfigureEndpointTable+0x1a>
     cdc:	41 c0       	rjmp	.+130    	; 0xd60 <Endpoint_ConfigureEndpointTable+0x9c>
     cde:	c8 2f       	mov	r28, r24
     ce0:	d9 2f       	mov	r29, r25
     ce2:	10 e0       	ldi	r17, 0x00	; 0
     ce4:	f1 2c       	mov	r15, r1
     ce6:	68 94       	set
     ce8:	dd 24       	eor	r13, r13
     cea:	d3 f8       	bld	r13, 3
     cec:	e1 2c       	mov	r14, r1
     cee:	68 94       	set
     cf0:	bb 24       	eor	r11, r11
     cf2:	b1 f8       	bld	r11, 1
     cf4:	0f 2e       	mov	r0, r31
     cf6:	f6 e0       	ldi	r31, 0x06	; 6
     cf8:	cf 2e       	mov	r12, r31
     cfa:	f0 2d       	mov	r31, r0
     cfc:	58 81       	ld	r21, Y
     cfe:	55 23       	and	r21, r21
     d00:	51 f1       	breq	.+84     	; 0xd56 <Endpoint_ConfigureEndpointTable+0x92>
     d02:	9c 81       	ldd	r25, Y+4	; 0x04
     d04:	e9 81       	ldd	r30, Y+1	; 0x01
     d06:	fa 81       	ldd	r31, Y+2	; 0x02
     d08:	7b 81       	ldd	r23, Y+3	; 0x03
     d0a:	85 2f       	mov	r24, r21
     d0c:	8f 70       	andi	r24, 0x0F	; 15
     d0e:	87 30       	cpi	r24, 0x07	; 7
     d10:	48 f5       	brcc	.+82     	; 0xd64 <Endpoint_ConfigureEndpointTable+0xa0>
     d12:	92 30       	cpi	r25, 0x02	; 2
     d14:	10 f0       	brcs	.+4      	; 0xd1a <Endpoint_ConfigureEndpointTable+0x56>
     d16:	4c 2d       	mov	r20, r12
     d18:	01 c0       	rjmp	.+2      	; 0xd1c <Endpoint_ConfigureEndpointTable+0x58>
     d1a:	4b 2d       	mov	r20, r11
     d1c:	e9 30       	cpi	r30, 0x09	; 9
     d1e:	f1 05       	cpc	r31, r1
     d20:	50 f0       	brcs	.+20     	; 0xd36 <Endpoint_ConfigureEndpointTable+0x72>
     d22:	2d 2d       	mov	r18, r13
     d24:	3e 2d       	mov	r19, r14
     d26:	9f 2d       	mov	r25, r15
     d28:	9f 5f       	subi	r25, 0xFF	; 255
     d2a:	22 0f       	add	r18, r18
     d2c:	33 1f       	adc	r19, r19
     d2e:	2e 17       	cp	r18, r30
     d30:	3f 07       	cpc	r19, r31
     d32:	d0 f3       	brcs	.-12     	; 0xd28 <Endpoint_ConfigureEndpointTable+0x64>
     d34:	01 c0       	rjmp	.+2      	; 0xd38 <Endpoint_ConfigureEndpointTable+0x74>
     d36:	9f 2d       	mov	r25, r15
     d38:	92 95       	swap	r25
     d3a:	90 7f       	andi	r25, 0xF0	; 240
     d3c:	49 2b       	or	r20, r25
     d3e:	55 1f       	adc	r21, r21
     d40:	55 27       	eor	r21, r21
     d42:	55 1f       	adc	r21, r21
     d44:	90 e4       	ldi	r25, 0x40	; 64
     d46:	79 9f       	mul	r23, r25
     d48:	90 01       	movw	r18, r0
     d4a:	11 24       	eor	r1, r1
     d4c:	65 2f       	mov	r22, r21
     d4e:	62 2b       	or	r22, r18
     d50:	55 df       	rcall	.-342    	; 0xbfc <Endpoint_ConfigureEndpoint_Prv>
     d52:	88 23       	and	r24, r24
     d54:	51 f0       	breq	.+20     	; 0xd6a <Endpoint_ConfigureEndpointTable+0xa6>
     d56:	1f 5f       	subi	r17, 0xFF	; 255
     d58:	25 96       	adiw	r28, 0x05	; 5
     d5a:	10 13       	cpse	r17, r16
     d5c:	cf cf       	rjmp	.-98     	; 0xcfc <Endpoint_ConfigureEndpointTable+0x38>
     d5e:	04 c0       	rjmp	.+8      	; 0xd68 <Endpoint_ConfigureEndpointTable+0xa4>
     d60:	81 e0       	ldi	r24, 0x01	; 1
     d62:	03 c0       	rjmp	.+6      	; 0xd6a <Endpoint_ConfigureEndpointTable+0xa6>
     d64:	80 e0       	ldi	r24, 0x00	; 0
     d66:	01 c0       	rjmp	.+2      	; 0xd6a <Endpoint_ConfigureEndpointTable+0xa6>
     d68:	81 e0       	ldi	r24, 0x01	; 1
     d6a:	df 91       	pop	r29
     d6c:	cf 91       	pop	r28
     d6e:	1f 91       	pop	r17
     d70:	0f 91       	pop	r16
     d72:	ff 90       	pop	r15
     d74:	ef 90       	pop	r14
     d76:	df 90       	pop	r13
     d78:	cf 90       	pop	r12
     d7a:	bf 90       	pop	r11
     d7c:	08 95       	ret

00000d7e <Endpoint_ClearStatusStage>:

void Endpoint_ClearStatusStage(void)
{
	if (USB_ControlRequest.bmRequestType & REQDIR_DEVICETOHOST)
     d7e:	80 91 76 04 	lds	r24, 0x0476
     d82:	88 23       	and	r24, r24
     d84:	1c f0       	brlt	.+6      	; 0xd8c <Endpoint_ClearStatusStage+0xe>
			 *  \return Boolean \c true if the current endpoint is ready for an IN packet, \c false otherwise.
			 */
			static inline bool Endpoint_IsINReady(void) ATTR_WARN_UNUSED_RESULT ATTR_ALWAYS_INLINE;
			static inline bool Endpoint_IsINReady(void)
			{
				return ((UEINTX & (1 << TXINI)) ? true : false);
     d86:	e8 ee       	ldi	r30, 0xE8	; 232
     d88:	f0 e0       	ldi	r31, 0x00	; 0
     d8a:	12 c0       	rjmp	.+36     	; 0xdb0 <Endpoint_ClearStatusStage+0x32>
			 *  \return Boolean \c true if current endpoint is has received an OUT packet, \c false otherwise.
			 */
			static inline bool Endpoint_IsOUTReceived(void) ATTR_WARN_UNUSED_RESULT ATTR_ALWAYS_INLINE;
			static inline bool Endpoint_IsOUTReceived(void)
			{
				return ((UEINTX & (1 << RXOUTI)) ? true : false);
     d8c:	e8 ee       	ldi	r30, 0xE8	; 232
     d8e:	f0 e0       	ldi	r31, 0x00	; 0
     d90:	03 c0       	rjmp	.+6      	; 0xd98 <Endpoint_ClearStatusStage+0x1a>
	{
		while (!(Endpoint_IsOUTReceived()))
		{
			if (USB_DeviceState == DEVICE_STATE_Unattached)
     d92:	8e b3       	in	r24, 0x1e	; 30
     d94:	88 23       	and	r24, r24
     d96:	a1 f0       	breq	.+40     	; 0xdc0 <Endpoint_ClearStatusStage+0x42>
     d98:	80 81       	ld	r24, Z

void Endpoint_ClearStatusStage(void)
{
	if (USB_ControlRequest.bmRequestType & REQDIR_DEVICETOHOST)
	{
		while (!(Endpoint_IsOUTReceived()))
     d9a:	82 ff       	sbrs	r24, 2
     d9c:	fa cf       	rjmp	.-12     	; 0xd92 <Endpoint_ClearStatusStage+0x14>
			 */
			static inline void Endpoint_ClearOUT(void) ATTR_ALWAYS_INLINE;
			static inline void Endpoint_ClearOUT(void)
			{
				#if !defined(CONTROL_ONLY_DEVICE)
					UEINTX &= ~((1 << RXOUTI) | (1 << FIFOCON));
     d9e:	e8 ee       	ldi	r30, 0xE8	; 232
     da0:	f0 e0       	ldi	r31, 0x00	; 0
     da2:	80 81       	ld	r24, Z
     da4:	8b 77       	andi	r24, 0x7B	; 123
     da6:	80 83       	st	Z, r24
     da8:	08 95       	ret
	}
	else
	{
		while (!(Endpoint_IsINReady()))
		{
			if (USB_DeviceState == DEVICE_STATE_Unattached)
     daa:	8e b3       	in	r24, 0x1e	; 30
     dac:	88 23       	and	r24, r24
     dae:	41 f0       	breq	.+16     	; 0xdc0 <Endpoint_ClearStatusStage+0x42>
			 *  \return Boolean \c true if the current endpoint is ready for an IN packet, \c false otherwise.
			 */
			static inline bool Endpoint_IsINReady(void) ATTR_WARN_UNUSED_RESULT ATTR_ALWAYS_INLINE;
			static inline bool Endpoint_IsINReady(void)
			{
				return ((UEINTX & (1 << TXINI)) ? true : false);
     db0:	80 81       	ld	r24, Z

		Endpoint_ClearOUT();
	}
	else
	{
		while (!(Endpoint_IsINReady()))
     db2:	80 ff       	sbrs	r24, 0
     db4:	fa cf       	rjmp	.-12     	; 0xdaa <Endpoint_ClearStatusStage+0x2c>
			 */
			static inline void Endpoint_ClearIN(void) ATTR_ALWAYS_INLINE;
			static inline void Endpoint_ClearIN(void)
			{
				#if !defined(CONTROL_ONLY_DEVICE)
					UEINTX &= ~((1 << TXINI) | (1 << FIFOCON));
     db6:	e8 ee       	ldi	r30, 0xE8	; 232
     db8:	f0 e0       	ldi	r31, 0x00	; 0
     dba:	80 81       	ld	r24, Z
     dbc:	8e 77       	andi	r24, 0x7E	; 126
     dbe:	80 83       	st	Z, r24
     dc0:	08 95       	ret

00000dc2 <Endpoint_WaitUntilReady>:
	}
}

#if !defined(CONTROL_ONLY_DEVICE)
uint8_t Endpoint_WaitUntilReady(void)
{
     dc2:	0f 93       	push	r16
     dc4:	1f 93       	push	r17
     dc6:	cf 93       	push	r28
     dc8:	df 93       	push	r29
			 *  \return Current USB frame number from the USB controller.
			 */
			static inline uint16_t USB_Device_GetFrameNumber(void) ATTR_ALWAYS_INLINE ATTR_WARN_UNUSED_RESULT;
			static inline uint16_t USB_Device_GetFrameNumber(void)
			{
				return UDFNUM;
     dca:	20 91 e4 00 	lds	r18, 0x00E4
     dce:	30 91 e5 00 	lds	r19, 0x00E5
     dd2:	65 e6       	ldi	r22, 0x65	; 101
			 *  \return The currently selected endpoint's direction, as a \c ENDPOINT_DIR_* mask.
			 */
			static inline uint8_t Endpoint_GetEndpointDirection(void) ATTR_WARN_UNUSED_RESULT ATTR_ALWAYS_INLINE;
			static inline uint8_t Endpoint_GetEndpointDirection(void)
			{
				return (UECFG0X & (1 << EPDIR)) ? ENDPOINT_DIR_IN : ENDPOINT_DIR_OUT;
     dd4:	ac ee       	ldi	r26, 0xEC	; 236
     dd6:	b0 e0       	ldi	r27, 0x00	; 0
			 *  \return Boolean \c true if current endpoint is has received an OUT packet, \c false otherwise.
			 */
			static inline bool Endpoint_IsOUTReceived(void) ATTR_WARN_UNUSED_RESULT ATTR_ALWAYS_INLINE;
			static inline bool Endpoint_IsOUTReceived(void)
			{
				return ((UEINTX & (1 << RXOUTI)) ? true : false);
     dd8:	e8 ee       	ldi	r30, 0xE8	; 232
     dda:	f0 e0       	ldi	r31, 0x00	; 0
			 *  \return Boolean \c true if the currently selected endpoint is stalled, \c false otherwise.
			 */
			static inline bool Endpoint_IsStalled(void) ATTR_WARN_UNUSED_RESULT ATTR_ALWAYS_INLINE;
			static inline bool Endpoint_IsStalled(void)
			{
				return ((UECONX & (1 << STALLRQ)) ? true : false);
     ddc:	0b ee       	ldi	r16, 0xEB	; 235
     dde:	10 e0       	ldi	r17, 0x00	; 0
     de0:	44 ee       	ldi	r20, 0xE4	; 228
     de2:	50 e0       	ldi	r21, 0x00	; 0
			 *  \return The currently selected endpoint's direction, as a \c ENDPOINT_DIR_* mask.
			 */
			static inline uint8_t Endpoint_GetEndpointDirection(void) ATTR_WARN_UNUSED_RESULT ATTR_ALWAYS_INLINE;
			static inline uint8_t Endpoint_GetEndpointDirection(void)
			{
				return (UECFG0X & (1 << EPDIR)) ? ENDPOINT_DIR_IN : ENDPOINT_DIR_OUT;
     de4:	8c 91       	ld	r24, X
     de6:	80 fd       	sbrc	r24, 0
     de8:	20 c0       	rjmp	.+64     	; 0xe2a <Endpoint_WaitUntilReady+0x68>
     dea:	23 c0       	rjmp	.+70     	; 0xe32 <Endpoint_WaitUntilReady+0x70>
		{
			if (Endpoint_IsOUTReceived())
			  return ENDPOINT_READYWAIT_NoError;
		}

		uint8_t USB_DeviceState_LCL = USB_DeviceState;
     dec:	8e b3       	in	r24, 0x1e	; 30

		if (USB_DeviceState_LCL == DEVICE_STATE_Unattached)
     dee:	88 23       	and	r24, r24
     df0:	81 f0       	breq	.+32     	; 0xe12 <Endpoint_WaitUntilReady+0x50>
		  return ENDPOINT_READYWAIT_DeviceDisconnected;
		else if (USB_DeviceState_LCL == DEVICE_STATE_Suspended)
     df2:	85 30       	cpi	r24, 0x05	; 5
     df4:	81 f0       	breq	.+32     	; 0xe16 <Endpoint_WaitUntilReady+0x54>
			 *  \return Boolean \c true if the currently selected endpoint is stalled, \c false otherwise.
			 */
			static inline bool Endpoint_IsStalled(void) ATTR_WARN_UNUSED_RESULT ATTR_ALWAYS_INLINE;
			static inline bool Endpoint_IsStalled(void)
			{
				return ((UECONX & (1 << STALLRQ)) ? true : false);
     df6:	e8 01       	movw	r28, r16
     df8:	88 81       	ld	r24, Y
		  return ENDPOINT_READYWAIT_BusSuspended;
		else if (Endpoint_IsStalled())
     dfa:	85 fd       	sbrc	r24, 5
     dfc:	0e c0       	rjmp	.+28     	; 0xe1a <Endpoint_WaitUntilReady+0x58>
     dfe:	ea 01       	movw	r28, r20
     e00:	88 81       	ld	r24, Y
     e02:	99 81       	ldd	r25, Y+1	; 0x01
		  return ENDPOINT_READYWAIT_EndpointStalled;

		uint16_t CurrentFrameNumber = USB_Device_GetFrameNumber();

		if (CurrentFrameNumber != PreviousFrameNumber)
     e04:	28 17       	cp	r18, r24
     e06:	39 07       	cpc	r19, r25
     e08:	69 f3       	breq	.-38     	; 0xde4 <Endpoint_WaitUntilReady+0x22>
     e0a:	61 50       	subi	r22, 0x01	; 1
		{
			PreviousFrameNumber = CurrentFrameNumber;

			if (!(TimeoutMSRem--))
     e0c:	41 f0       	breq	.+16     	; 0xe1e <Endpoint_WaitUntilReady+0x5c>
     e0e:	9c 01       	movw	r18, r24
     e10:	e9 cf       	rjmp	.-46     	; 0xde4 <Endpoint_WaitUntilReady+0x22>
		}

		uint8_t USB_DeviceState_LCL = USB_DeviceState;

		if (USB_DeviceState_LCL == DEVICE_STATE_Unattached)
		  return ENDPOINT_READYWAIT_DeviceDisconnected;
     e12:	82 e0       	ldi	r24, 0x02	; 2
     e14:	12 c0       	rjmp	.+36     	; 0xe3a <Endpoint_WaitUntilReady+0x78>
		else if (USB_DeviceState_LCL == DEVICE_STATE_Suspended)
		  return ENDPOINT_READYWAIT_BusSuspended;
     e16:	83 e0       	ldi	r24, 0x03	; 3
     e18:	10 c0       	rjmp	.+32     	; 0xe3a <Endpoint_WaitUntilReady+0x78>
		else if (Endpoint_IsStalled())
		  return ENDPOINT_READYWAIT_EndpointStalled;
     e1a:	81 e0       	ldi	r24, 0x01	; 1
     e1c:	0e c0       	rjmp	.+28     	; 0xe3a <Endpoint_WaitUntilReady+0x78>
		if (CurrentFrameNumber != PreviousFrameNumber)
		{
			PreviousFrameNumber = CurrentFrameNumber;

			if (!(TimeoutMSRem--))
			  return ENDPOINT_READYWAIT_Timeout;
     e1e:	84 e0       	ldi	r24, 0x04	; 4
     e20:	0c c0       	rjmp	.+24     	; 0xe3a <Endpoint_WaitUntilReady+0x78>
	for (;;)
	{
		if (Endpoint_GetEndpointDirection() == ENDPOINT_DIR_IN)
		{
			if (Endpoint_IsINReady())
			  return ENDPOINT_READYWAIT_NoError;
     e22:	80 e0       	ldi	r24, 0x00	; 0
     e24:	0a c0       	rjmp	.+20     	; 0xe3a <Endpoint_WaitUntilReady+0x78>
		}
		else
		{
			if (Endpoint_IsOUTReceived())
			  return ENDPOINT_READYWAIT_NoError;
     e26:	80 e0       	ldi	r24, 0x00	; 0
     e28:	08 c0       	rjmp	.+16     	; 0xe3a <Endpoint_WaitUntilReady+0x78>
			 *  \return Boolean \c true if the current endpoint is ready for an IN packet, \c false otherwise.
			 */
			static inline bool Endpoint_IsINReady(void) ATTR_WARN_UNUSED_RESULT ATTR_ALWAYS_INLINE;
			static inline bool Endpoint_IsINReady(void)
			{
				return ((UEINTX & (1 << TXINI)) ? true : false);
     e2a:	80 81       	ld	r24, Z

	for (;;)
	{
		if (Endpoint_GetEndpointDirection() == ENDPOINT_DIR_IN)
		{
			if (Endpoint_IsINReady())
     e2c:	80 ff       	sbrs	r24, 0
     e2e:	de cf       	rjmp	.-68     	; 0xdec <Endpoint_WaitUntilReady+0x2a>
     e30:	f8 cf       	rjmp	.-16     	; 0xe22 <Endpoint_WaitUntilReady+0x60>
			 *  \return Boolean \c true if current endpoint is has received an OUT packet, \c false otherwise.
			 */
			static inline bool Endpoint_IsOUTReceived(void) ATTR_WARN_UNUSED_RESULT ATTR_ALWAYS_INLINE;
			static inline bool Endpoint_IsOUTReceived(void)
			{
				return ((UEINTX & (1 << RXOUTI)) ? true : false);
     e32:	80 81       	ld	r24, Z
			  return ENDPOINT_READYWAIT_NoError;
		}
		else
		{
			if (Endpoint_IsOUTReceived())
     e34:	82 ff       	sbrs	r24, 2
     e36:	da cf       	rjmp	.-76     	; 0xdec <Endpoint_WaitUntilReady+0x2a>
     e38:	f6 cf       	rjmp	.-20     	; 0xe26 <Endpoint_WaitUntilReady+0x64>

			if (!(TimeoutMSRem--))
			  return ENDPOINT_READYWAIT_Timeout;
		}
	}
}
     e3a:	df 91       	pop	r29
     e3c:	cf 91       	pop	r28
     e3e:	1f 91       	pop	r17
     e40:	0f 91       	pop	r16
     e42:	08 95       	ret

00000e44 <USB_ResetInterface>:

	USB_IsInitialized = false;
}

void USB_ResetInterface(void)
{
     e44:	0f 93       	push	r16
     e46:	1f 93       	push	r17
     e48:	cf 93       	push	r28
     e4a:	df 93       	push	r29
	#if defined(USB_CAN_BE_BOTH)
	bool UIDModeSelectEnabled = ((UHWCON & (1 << UIDE)) != 0);
	#endif

	USB_INT_DisableAllInterrupts();
     e4c:	4e d0       	rcall	.+156    	; 0xeea <USB_INT_DisableAllInterrupts>
	USB_INT_ClearAllInterrupts();
     e4e:	55 d0       	rcall	.+170    	; 0xefa <USB_INT_ClearAllInterrupts>
			}

			static inline void USB_Controller_Reset(void) ATTR_ALWAYS_INLINE;
			static inline void USB_Controller_Reset(void)
			{
				USBCON &= ~(1 << USBE);
     e50:	c8 ed       	ldi	r28, 0xD8	; 216
     e52:	d0 e0       	ldi	r29, 0x00	; 0
     e54:	88 81       	ld	r24, Y
     e56:	8f 77       	andi	r24, 0x7F	; 127
     e58:	88 83       	st	Y, r24
				USBCON |=  (1 << USBE);
     e5a:	88 81       	ld	r24, Y
     e5c:	80 68       	ori	r24, 0x80	; 128
     e5e:	88 83       	st	Y, r24
			}

			static inline void USB_CLK_Unfreeze(void) ATTR_ALWAYS_INLINE;
			static inline void USB_CLK_Unfreeze(void)
			{
				USBCON &= ~(1 << FRZCLK);
     e60:	88 81       	ld	r24, Y
     e62:	8f 7d       	andi	r24, 0xDF	; 223
     e64:	88 83       	st	Y, r24

	if (USB_CurrentMode == USB_MODE_Device)
	{
		#if defined(USB_CAN_BE_DEVICE)
		#if (defined(USB_SERIES_6_AVR) || defined(USB_SERIES_7_AVR))
		UHWCON |=  (1 << UIMOD);
     e66:	e7 ed       	ldi	r30, 0xD7	; 215
     e68:	f0 e0       	ldi	r31, 0x00	; 0
     e6a:	80 81       	ld	r24, Z
     e6c:	80 68       	ori	r24, 0x80	; 128
     e6e:	80 83       	st	Z, r24
			}

			static inline void USB_PLL_Off(void) ATTR_ALWAYS_INLINE;
			static inline void USB_PLL_Off(void)
			{
				PLLCSR = 0;
     e70:	19 bc       	out	0x29, r1	; 41
}

#if defined(USB_CAN_BE_DEVICE)
static void USB_Init_Device(void)
{
	USB_DeviceState                 = DEVICE_STATE_Unattached;
     e72:	1e ba       	out	0x1e, r1	; 30
	USB_Device_ConfigurationNumber  = 0;
     e74:	10 92 72 04 	sts	0x0472, r1

	#if !defined(NO_DEVICE_REMOTE_WAKEUP)
	USB_Device_RemoteWakeupEnabled  = false;
     e78:	10 92 74 04 	sts	0x0474, r1
	#endif

	#if !defined(NO_DEVICE_SELF_POWER)
	USB_Device_CurrentlySelfPowered = false;
     e7c:	10 92 73 04 	sts	0x0473, r1
			}

			static inline void USB_Device_SetFullSpeed(void) ATTR_ALWAYS_INLINE;
			static inline void USB_Device_SetFullSpeed(void)
			{
				UDCON &= ~(1 << LSM);
     e80:	00 ee       	ldi	r16, 0xE0	; 224
     e82:	10 e0       	ldi	r17, 0x00	; 0
     e84:	f8 01       	movw	r30, r16
     e86:	80 81       	ld	r24, Z
     e88:	8b 7f       	andi	r24, 0xFB	; 251
     e8a:	80 83       	st	Z, r24
			{
				switch (Interrupt)
				{
					#if (defined(USB_SERIES_4_AVR) || defined(USB_SERIES_6_AVR) || defined(USB_SERIES_7_AVR))
					case USB_INT_VBUSTI:
						USBCON |= (1 << VBUSTE);
     e8c:	88 81       	ld	r24, Y
     e8e:	81 60       	ori	r24, 0x01	; 1
     e90:	88 83       	st	Y, r24
				uint8_t Number = (Address & ENDPOINT_EPNUM_MASK);

				if (Number >= ENDPOINT_TOTAL_ENDPOINTS)
				  return false;

				return Endpoint_ConfigureEndpoint_Prv(Number,
     e92:	42 e0       	ldi	r20, 0x02	; 2
     e94:	60 e0       	ldi	r22, 0x00	; 0
     e96:	80 e0       	ldi	r24, 0x00	; 0
     e98:	b1 de       	rcall	.-670    	; 0xbfc <Endpoint_ConfigureEndpoint_Prv>
					#if defined(USB_CAN_BE_DEVICE)
					case USB_INT_WAKEUPI:
						UDINT  &= ~(1 << WAKEUPI);
						break;
					case USB_INT_SUSPI:
						UDINT  &= ~(1 << SUSPI);
     e9a:	e1 ee       	ldi	r30, 0xE1	; 225
     e9c:	f0 e0       	ldi	r31, 0x00	; 0
     e9e:	80 81       	ld	r24, Z
     ea0:	8e 7f       	andi	r24, 0xFE	; 254
     ea2:	80 83       	st	Z, r24
					#if defined(USB_CAN_BE_DEVICE)
					case USB_INT_WAKEUPI:
						UDIEN  |= (1 << WAKEUPE);
						break;
					case USB_INT_SUSPI:
						UDIEN  |= (1 << SUSPE);
     ea4:	e2 ee       	ldi	r30, 0xE2	; 226
     ea6:	f0 e0       	ldi	r31, 0x00	; 0
     ea8:	80 81       	ld	r24, Z
     eaa:	81 60       	ori	r24, 0x01	; 1
     eac:	80 83       	st	Z, r24
						break;
					case USB_INT_EORSTI:
						UDIEN  |= (1 << EORSTE);
     eae:	80 81       	ld	r24, Z
     eb0:	88 60       	ori	r24, 0x08	; 8
     eb2:	80 83       	st	Z, r24
			 *  register and despite the datasheet making no mention of its requirement in host mode.
			 */
			static inline void USB_Attach(void) ATTR_ALWAYS_INLINE;
			static inline void USB_Attach(void)
			{
				UDCON  &= ~(1 << DETACH);
     eb4:	f8 01       	movw	r30, r16
     eb6:	80 81       	ld	r24, Z
     eb8:	8e 7f       	andi	r24, 0xFE	; 254
     eba:	80 83       	st	Z, r24

			#if defined(USB_SERIES_4_AVR) || defined(USB_SERIES_6_AVR) || defined(USB_SERIES_7_AVR)
			static inline void USB_OTGPAD_On(void) ATTR_ALWAYS_INLINE;
			static inline void USB_OTGPAD_On(void)
			{
				USBCON |=  (1 << OTGPADE);
     ebc:	88 81       	ld	r24, Y
     ebe:	80 61       	ori	r24, 0x10	; 16
     ec0:	88 83       	st	Y, r24
	}

	#if (defined(USB_SERIES_4_AVR) || defined(USB_SERIES_6_AVR) || defined(USB_SERIES_7_AVR))
	USB_OTGPAD_On();
	#endif
}
     ec2:	df 91       	pop	r29
     ec4:	cf 91       	pop	r28
     ec6:	1f 91       	pop	r17
     ec8:	0f 91       	pop	r16
     eca:	08 95       	ret

00000ecc <USB_Init>:
			}

			static inline void USB_OTGPAD_Off(void) ATTR_ALWAYS_INLINE;
			static inline void USB_OTGPAD_Off(void)
			{
				USBCON &= ~(1 << OTGPADE);
     ecc:	e8 ed       	ldi	r30, 0xD8	; 216
     ece:	f0 e0       	ldi	r31, 0x00	; 0
     ed0:	80 81       	ld	r24, Z
     ed2:	8f 7e       	andi	r24, 0xEF	; 239
     ed4:	80 83       	st	Z, r24

			static inline void USB_REG_On(void) ATTR_ALWAYS_INLINE;
			static inline void USB_REG_On(void)
			{
			#if defined(USB_SERIES_4_AVR) || defined(USB_SERIES_6_AVR) || defined(USB_SERIES_7_AVR)
				UHWCON |=  (1 << UVREGE);
     ed6:	e7 ed       	ldi	r30, 0xD7	; 215
     ed8:	f0 e0       	ldi	r31, 0x00	; 0
     eda:	80 81       	ld	r24, Z
     edc:	81 60       	ori	r24, 0x01	; 1
     ede:	80 83       	st	Z, r24
		UHWCON &= ~(1 << UIDE);
		USB_CurrentMode = Mode;
	}
	#endif

	USB_IsInitialized = true;
     ee0:	81 e0       	ldi	r24, 0x01	; 1
     ee2:	80 93 75 04 	sts	0x0475, r24

	USB_ResetInterface();
     ee6:	ae cf       	rjmp	.-164    	; 0xe44 <USB_ResetInterface>
     ee8:	08 95       	ret

00000eea <USB_INT_DisableAllInterrupts>:
#include "../USBInterrupt.h"

void USB_INT_DisableAllInterrupts(void)
{
	#if defined(USB_SERIES_6_AVR) || defined(USB_SERIES_7_AVR)
	USBCON &= ~((1 << VBUSTE) | (1 << IDTE));
     eea:	e8 ed       	ldi	r30, 0xD8	; 216
     eec:	f0 e0       	ldi	r31, 0x00	; 0
     eee:	80 81       	ld	r24, Z
     ef0:	8c 7f       	andi	r24, 0xFC	; 252
     ef2:	80 83       	st	Z, r24
	#if defined(USB_CAN_BE_HOST)
	UHIEN   = 0;
	#endif

	#if defined(USB_CAN_BE_DEVICE)
	UDIEN   = 0;
     ef4:	10 92 e2 00 	sts	0x00E2, r1
     ef8:	08 95       	ret

00000efa <USB_INT_ClearAllInterrupts>:
}

void USB_INT_ClearAllInterrupts(void)
{
	#if defined(USB_SERIES_4_AVR) || defined(USB_SERIES_6_AVR) || defined(USB_SERIES_7_AVR)
	USBINT = 0;
     efa:	10 92 da 00 	sts	0x00DA, r1
	#if defined(USB_CAN_BE_HOST)
	UHINT  = 0;
	#endif

	#if defined(USB_CAN_BE_DEVICE)
	UDINT  = 0;
     efe:	10 92 e1 00 	sts	0x00E1, r1
     f02:	08 95       	ret

00000f04 <__vector_10>:
	#endif
}

ISR(USB_GEN_vect, ISR_BLOCK)
{
     f04:	1f 92       	push	r1
     f06:	0f 92       	push	r0
     f08:	0f b6       	in	r0, 0x3f	; 63
     f0a:	0f 92       	push	r0
     f0c:	11 24       	eor	r1, r1
     f0e:	0b b6       	in	r0, 0x3b	; 59
     f10:	0f 92       	push	r0
     f12:	2f 93       	push	r18
     f14:	3f 93       	push	r19
     f16:	4f 93       	push	r20
     f18:	5f 93       	push	r21
     f1a:	6f 93       	push	r22
     f1c:	7f 93       	push	r23
     f1e:	8f 93       	push	r24
     f20:	9f 93       	push	r25
     f22:	af 93       	push	r26
     f24:	bf 93       	push	r27
     f26:	ef 93       	push	r30
     f28:	ff 93       	push	r31
					case USB_INT_SUSPI:
						return (UDINT  & (1 << SUSPI));
					case USB_INT_EORSTI:
						return (UDINT  & (1 << EORSTI));
					case USB_INT_SOFI:
						return (UDINT  & (1 << SOFI));
     f2a:	80 91 e1 00 	lds	r24, 0x00E1
	#if defined(USB_CAN_BE_DEVICE)
	#if !defined(NO_SOF_EVENTS)
	if (USB_INT_HasOccurred(USB_INT_SOFI) && USB_INT_IsEnabled(USB_INT_SOFI))
     f2e:	82 ff       	sbrs	r24, 2
     f30:	0a c0       	rjmp	.+20     	; 0xf46 <__vector_10+0x42>
					case USB_INT_SUSPI:
						return (UDIEN  & (1 << SUSPE));
					case USB_INT_EORSTI:
						return (UDIEN  & (1 << EORSTE));
					case USB_INT_SOFI:
						return (UDIEN  & (1 << SOFE));
     f32:	80 91 e2 00 	lds	r24, 0x00E2
     f36:	82 ff       	sbrs	r24, 2
     f38:	06 c0       	rjmp	.+12     	; 0xf46 <__vector_10+0x42>
						break;
					case USB_INT_EORSTI:
						UDINT  &= ~(1 << EORSTI);
						break;
					case USB_INT_SOFI:
						UDINT  &= ~(1 << SOFI);
     f3a:	e1 ee       	ldi	r30, 0xE1	; 225
     f3c:	f0 e0       	ldi	r31, 0x00	; 0
     f3e:	80 81       	ld	r24, Z
     f40:	8b 7f       	andi	r24, 0xFB	; 251
     f42:	80 83       	st	Z, r24
	{
		USB_INT_Clear(USB_INT_SOFI);

		EVENT_USB_Device_StartOfFrame();
     f44:	4f d2       	rcall	.+1182   	; 0x13e4 <USB_Event_Stub>
			{
				switch (Interrupt)
				{
					#if (defined(USB_SERIES_4_AVR) || defined(USB_SERIES_6_AVR) || defined(USB_SERIES_7_AVR))
					case USB_INT_VBUSTI:
						return (USBINT & (1 << VBUSTI));
     f46:	80 91 da 00 	lds	r24, 0x00DA
	}
	#endif

	#if defined(USB_SERIES_4_AVR) || defined(USB_SERIES_6_AVR) || defined(USB_SERIES_7_AVR)
	if (USB_INT_HasOccurred(USB_INT_VBUSTI) && USB_INT_IsEnabled(USB_INT_VBUSTI))
     f4a:	80 ff       	sbrs	r24, 0
     f4c:	1d c0       	rjmp	.+58     	; 0xf88 <__vector_10+0x84>
			{
				switch (Interrupt)
				{
					#if (defined(USB_SERIES_4_AVR) || defined(USB_SERIES_6_AVR) || defined(USB_SERIES_7_AVR))
					case USB_INT_VBUSTI:
						return (USBCON & (1 << VBUSTE));
     f4e:	80 91 d8 00 	lds	r24, 0x00D8
     f52:	80 ff       	sbrs	r24, 0
     f54:	19 c0       	rjmp	.+50     	; 0xf88 <__vector_10+0x84>
			{
				switch (Interrupt)
				{
					#if (defined(USB_SERIES_4_AVR) || defined(USB_SERIES_6_AVR) || defined(USB_SERIES_7_AVR))
					case USB_INT_VBUSTI:
						USBINT &= ~(1 << VBUSTI);
     f56:	ea ed       	ldi	r30, 0xDA	; 218
     f58:	f0 e0       	ldi	r31, 0x00	; 0
     f5a:	80 81       	ld	r24, Z
     f5c:	8e 7f       	andi	r24, 0xFE	; 254
     f5e:	80 83       	st	Z, r24
				 *  \return Boolean \c true if the VBUS line is currently detecting power from a host, \c false otherwise.
				 */
				static inline bool USB_VBUS_GetStatus(void) ATTR_WARN_UNUSED_RESULT ATTR_ALWAYS_INLINE;
				static inline bool USB_VBUS_GetStatus(void)
				{
					return ((USBSTA & (1 << VBUS)) ? true : false);
     f60:	80 91 d9 00 	lds	r24, 0x00D9
	{
		USB_INT_Clear(USB_INT_VBUSTI);

		if (USB_VBUS_GetStatus())
     f64:	80 ff       	sbrs	r24, 0
     f66:	0c c0       	rjmp	.+24     	; 0xf80 <__vector_10+0x7c>

		/* Inline Functions: */
			static inline void USB_PLL_On(void) ATTR_ALWAYS_INLINE;
			static inline void USB_PLL_On(void)
			{
				PLLCSR = USB_PLL_PSC;
     f68:	84 e1       	ldi	r24, 0x14	; 20
     f6a:	89 bd       	out	0x29, r24	; 41
				PLLCSR = (USB_PLL_PSC | (1 << PLLE));
     f6c:	86 e1       	ldi	r24, 0x16	; 22
     f6e:	89 bd       	out	0x29, r24	; 41
		{
			if (!(USB_Options & USB_OPT_MANUAL_PLL))
			{
				USB_PLL_On();
				while (!(USB_PLL_IsReady()));
     f70:	09 b4       	in	r0, 0x29	; 41
     f72:	00 fe       	sbrs	r0, 0
     f74:	fd cf       	rjmp	.-6      	; 0xf70 <__vector_10+0x6c>
			}

			USB_DeviceState = DEVICE_STATE_Powered;
     f76:	81 e0       	ldi	r24, 0x01	; 1
     f78:	8e bb       	out	0x1e, r24	; 30
			EVENT_USB_Device_Connect();
     f7a:	0e 94 20 12 	call	0x2440	; 0x2440 <EVENT_USB_Device_Connect>
     f7e:	04 c0       	rjmp	.+8      	; 0xf88 <__vector_10+0x84>
			}

			static inline void USB_PLL_Off(void) ATTR_ALWAYS_INLINE;
			static inline void USB_PLL_Off(void)
			{
				PLLCSR = 0;
     f80:	19 bc       	out	0x29, r1	; 41
		else
		{
			if (!(USB_Options & USB_OPT_MANUAL_PLL))
			  USB_PLL_Off();

			USB_DeviceState = DEVICE_STATE_Unattached;
     f82:	1e ba       	out	0x1e, r1	; 30
			EVENT_USB_Device_Disconnect();
     f84:	0e 94 21 12 	call	0x2442	; 0x2442 <EVENT_USB_Device_Disconnect>
					#endif
					#if defined(USB_CAN_BE_DEVICE)
					case USB_INT_WAKEUPI:
						return (UDINT  & (1 << WAKEUPI));
					case USB_INT_SUSPI:
						return (UDINT  & (1 << SUSPI));
     f88:	80 91 e1 00 	lds	r24, 0x00E1
		}
	}
	#endif

	if (USB_INT_HasOccurred(USB_INT_SUSPI) && USB_INT_IsEnabled(USB_INT_SUSPI))
     f8c:	80 ff       	sbrs	r24, 0
     f8e:	15 c0       	rjmp	.+42     	; 0xfba <__vector_10+0xb6>
					#endif
					#if defined(USB_CAN_BE_DEVICE)
					case USB_INT_WAKEUPI:
						return (UDIEN  & (1 << WAKEUPE));
					case USB_INT_SUSPI:
						return (UDIEN  & (1 << SUSPE));
     f90:	80 91 e2 00 	lds	r24, 0x00E2
     f94:	80 ff       	sbrs	r24, 0
     f96:	11 c0       	rjmp	.+34     	; 0xfba <__vector_10+0xb6>
					#if defined(USB_CAN_BE_DEVICE)
					case USB_INT_WAKEUPI:
						UDIEN  &= ~(1 << WAKEUPE);
						break;
					case USB_INT_SUSPI:
						UDIEN  &= ~(1 << SUSPE);
     f98:	e2 ee       	ldi	r30, 0xE2	; 226
     f9a:	f0 e0       	ldi	r31, 0x00	; 0
     f9c:	80 81       	ld	r24, Z
     f9e:	8e 7f       	andi	r24, 0xFE	; 254
     fa0:	80 83       	st	Z, r24
						USBCON |= (1 << IDTE);
						break;
					#endif
					#if defined(USB_CAN_BE_DEVICE)
					case USB_INT_WAKEUPI:
						UDIEN  |= (1 << WAKEUPE);
     fa2:	80 81       	ld	r24, Z
     fa4:	80 61       	ori	r24, 0x10	; 16
     fa6:	80 83       	st	Z, r24
			#endif

			static inline void USB_CLK_Freeze(void) ATTR_ALWAYS_INLINE;
			static inline void USB_CLK_Freeze(void)
			{
				USBCON |=  (1 << FRZCLK);
     fa8:	e8 ed       	ldi	r30, 0xD8	; 216
     faa:	f0 e0       	ldi	r31, 0x00	; 0
     fac:	80 81       	ld	r24, Z
     fae:	80 62       	ori	r24, 0x20	; 32
     fb0:	80 83       	st	Z, r24
			}

			static inline void USB_PLL_Off(void) ATTR_ALWAYS_INLINE;
			static inline void USB_PLL_Off(void)
			{
				PLLCSR = 0;
     fb2:	19 bc       	out	0x29, r1	; 41

		#if defined(USB_SERIES_2_AVR) && !defined(NO_LIMITED_CONTROLLER_CONNECT)
		USB_DeviceState = DEVICE_STATE_Unattached;
		EVENT_USB_Device_Disconnect();
		#else
		USB_DeviceState = DEVICE_STATE_Suspended;
     fb4:	85 e0       	ldi	r24, 0x05	; 5
     fb6:	8e bb       	out	0x1e, r24	; 30
		EVENT_USB_Device_Suspend();
     fb8:	15 d2       	rcall	.+1066   	; 0x13e4 <USB_Event_Stub>
					case USB_INT_IDTI:
						return (USBINT & (1 << IDTI));
					#endif
					#if defined(USB_CAN_BE_DEVICE)
					case USB_INT_WAKEUPI:
						return (UDINT  & (1 << WAKEUPI));
     fba:	80 91 e1 00 	lds	r24, 0x00E1
		#endif
	}

	if (USB_INT_HasOccurred(USB_INT_WAKEUPI) && USB_INT_IsEnabled(USB_INT_WAKEUPI))
     fbe:	84 ff       	sbrs	r24, 4
     fc0:	2d c0       	rjmp	.+90     	; 0x101c <__vector_10+0x118>
					case USB_INT_IDTI:
						return (USBCON & (1 << IDTE));
					#endif
					#if defined(USB_CAN_BE_DEVICE)
					case USB_INT_WAKEUPI:
						return (UDIEN  & (1 << WAKEUPE));
     fc2:	80 91 e2 00 	lds	r24, 0x00E2
     fc6:	84 ff       	sbrs	r24, 4
     fc8:	29 c0       	rjmp	.+82     	; 0x101c <__vector_10+0x118>

		/* Inline Functions: */
			static inline void USB_PLL_On(void) ATTR_ALWAYS_INLINE;
			static inline void USB_PLL_On(void)
			{
				PLLCSR = USB_PLL_PSC;
     fca:	84 e1       	ldi	r24, 0x14	; 20
     fcc:	89 bd       	out	0x29, r24	; 41
				PLLCSR = (USB_PLL_PSC | (1 << PLLE));
     fce:	86 e1       	ldi	r24, 0x16	; 22
     fd0:	89 bd       	out	0x29, r24	; 41
	{
		if (!(USB_Options & USB_OPT_MANUAL_PLL))
		{
			USB_PLL_On();
			while (!(USB_PLL_IsReady()));
     fd2:	09 b4       	in	r0, 0x29	; 41
     fd4:	00 fe       	sbrs	r0, 0
     fd6:	fd cf       	rjmp	.-6      	; 0xfd2 <__vector_10+0xce>
			}

			static inline void USB_CLK_Unfreeze(void) ATTR_ALWAYS_INLINE;
			static inline void USB_CLK_Unfreeze(void)
			{
				USBCON &= ~(1 << FRZCLK);
     fd8:	e8 ed       	ldi	r30, 0xD8	; 216
     fda:	f0 e0       	ldi	r31, 0x00	; 0
     fdc:	80 81       	ld	r24, Z
     fde:	8f 7d       	andi	r24, 0xDF	; 223
     fe0:	80 83       	st	Z, r24
						USBINT &= ~(1 << IDTI);
						break;
					#endif
					#if defined(USB_CAN_BE_DEVICE)
					case USB_INT_WAKEUPI:
						UDINT  &= ~(1 << WAKEUPI);
     fe2:	e1 ee       	ldi	r30, 0xE1	; 225
     fe4:	f0 e0       	ldi	r31, 0x00	; 0
     fe6:	80 81       	ld	r24, Z
     fe8:	8f 7e       	andi	r24, 0xEF	; 239
     fea:	80 83       	st	Z, r24
						USBCON &= ~(1 << IDTE);
						break;
					#endif
					#if defined(USB_CAN_BE_DEVICE)
					case USB_INT_WAKEUPI:
						UDIEN  &= ~(1 << WAKEUPE);
     fec:	e2 ee       	ldi	r30, 0xE2	; 226
     fee:	f0 e0       	ldi	r31, 0x00	; 0
     ff0:	80 81       	ld	r24, Z
     ff2:	8f 7e       	andi	r24, 0xEF	; 239
     ff4:	80 83       	st	Z, r24
					#if defined(USB_CAN_BE_DEVICE)
					case USB_INT_WAKEUPI:
						UDIEN  |= (1 << WAKEUPE);
						break;
					case USB_INT_SUSPI:
						UDIEN  |= (1 << SUSPE);
     ff6:	80 81       	ld	r24, Z
     ff8:	81 60       	ori	r24, 0x01	; 1
     ffa:	80 83       	st	Z, r24
		USB_INT_Clear(USB_INT_WAKEUPI);

		USB_INT_Disable(USB_INT_WAKEUPI);
		USB_INT_Enable(USB_INT_SUSPI);

		if (USB_Device_ConfigurationNumber)
     ffc:	80 91 72 04 	lds	r24, 0x0472
    1000:	88 23       	and	r24, r24
    1002:	19 f0       	breq	.+6      	; 0x100a <__vector_10+0x106>
		  USB_DeviceState = DEVICE_STATE_Configured;
    1004:	84 e0       	ldi	r24, 0x04	; 4
    1006:	8e bb       	out	0x1e, r24	; 30
    1008:	08 c0       	rjmp	.+16     	; 0x101a <__vector_10+0x116>
			}

			static inline bool USB_Device_IsAddressSet(void) ATTR_ALWAYS_INLINE ATTR_WARN_UNUSED_RESULT;
			static inline bool USB_Device_IsAddressSet(void)
			{
				return (UDADDR & (1 << ADDEN));
    100a:	80 91 e3 00 	lds	r24, 0x00E3
		else
		  USB_DeviceState = (USB_Device_IsAddressSet()) ? DEVICE_STATE_Addressed : DEVICE_STATE_Powered;
    100e:	88 23       	and	r24, r24
    1010:	14 f4       	brge	.+4      	; 0x1016 <__vector_10+0x112>
    1012:	83 e0       	ldi	r24, 0x03	; 3
    1014:	01 c0       	rjmp	.+2      	; 0x1018 <__vector_10+0x114>
    1016:	81 e0       	ldi	r24, 0x01	; 1
    1018:	8e bb       	out	0x1e, r24	; 30

		#if defined(USB_SERIES_2_AVR) && !defined(NO_LIMITED_CONTROLLER_CONNECT)
		EVENT_USB_Device_Connect();
		#else
		EVENT_USB_Device_WakeUp();
    101a:	e4 d1       	rcall	.+968    	; 0x13e4 <USB_Event_Stub>
					case USB_INT_WAKEUPI:
						return (UDINT  & (1 << WAKEUPI));
					case USB_INT_SUSPI:
						return (UDINT  & (1 << SUSPI));
					case USB_INT_EORSTI:
						return (UDINT  & (1 << EORSTI));
    101c:	80 91 e1 00 	lds	r24, 0x00E1
		#endif
	}

	if (USB_INT_HasOccurred(USB_INT_EORSTI) && USB_INT_IsEnabled(USB_INT_EORSTI))
    1020:	83 ff       	sbrs	r24, 3
    1022:	22 c0       	rjmp	.+68     	; 0x1068 <__vector_10+0x164>
					case USB_INT_WAKEUPI:
						return (UDIEN  & (1 << WAKEUPE));
					case USB_INT_SUSPI:
						return (UDIEN  & (1 << SUSPE));
					case USB_INT_EORSTI:
						return (UDIEN  & (1 << EORSTE));
    1024:	80 91 e2 00 	lds	r24, 0x00E2
    1028:	83 ff       	sbrs	r24, 3
    102a:	1e c0       	rjmp	.+60     	; 0x1068 <__vector_10+0x164>
						break;
					case USB_INT_SUSPI:
						UDINT  &= ~(1 << SUSPI);
						break;
					case USB_INT_EORSTI:
						UDINT  &= ~(1 << EORSTI);
    102c:	e1 ee       	ldi	r30, 0xE1	; 225
    102e:	f0 e0       	ldi	r31, 0x00	; 0
    1030:	80 81       	ld	r24, Z
    1032:	87 7f       	andi	r24, 0xF7	; 247
    1034:	80 83       	st	Z, r24
	{
		USB_INT_Clear(USB_INT_EORSTI);

		USB_DeviceState                = DEVICE_STATE_Default;
    1036:	82 e0       	ldi	r24, 0x02	; 2
    1038:	8e bb       	out	0x1e, r24	; 30
		USB_Device_ConfigurationNumber = 0;
    103a:	10 92 72 04 	sts	0x0472, r1
					#if defined(USB_CAN_BE_DEVICE)
					case USB_INT_WAKEUPI:
						UDINT  &= ~(1 << WAKEUPI);
						break;
					case USB_INT_SUSPI:
						UDINT  &= ~(1 << SUSPI);
    103e:	80 81       	ld	r24, Z
    1040:	8e 7f       	andi	r24, 0xFE	; 254
    1042:	80 83       	st	Z, r24
					#if defined(USB_CAN_BE_DEVICE)
					case USB_INT_WAKEUPI:
						UDIEN  &= ~(1 << WAKEUPE);
						break;
					case USB_INT_SUSPI:
						UDIEN  &= ~(1 << SUSPE);
    1044:	e2 ee       	ldi	r30, 0xE2	; 226
    1046:	f0 e0       	ldi	r31, 0x00	; 0
    1048:	80 81       	ld	r24, Z
    104a:	8e 7f       	andi	r24, 0xFE	; 254
    104c:	80 83       	st	Z, r24
						USBCON |= (1 << IDTE);
						break;
					#endif
					#if defined(USB_CAN_BE_DEVICE)
					case USB_INT_WAKEUPI:
						UDIEN  |= (1 << WAKEUPE);
    104e:	80 81       	ld	r24, Z
    1050:	80 61       	ori	r24, 0x10	; 16
    1052:	80 83       	st	Z, r24
				uint8_t Number = (Address & ENDPOINT_EPNUM_MASK);

				if (Number >= ENDPOINT_TOTAL_ENDPOINTS)
				  return false;

				return Endpoint_ConfigureEndpoint_Prv(Number,
    1054:	42 e0       	ldi	r20, 0x02	; 2
    1056:	60 e0       	ldi	r22, 0x00	; 0
    1058:	80 e0       	ldi	r24, 0x00	; 0
    105a:	d0 dd       	rcall	.-1120   	; 0xbfc <Endpoint_ConfigureEndpoint_Prv>
						break;
					case USB_INT_SOFI:
						UDIEN  |= (1 << SOFE);
						break;
					case USB_INT_RXSTPI:
						UEIENX |= (1 << RXSTPE);
    105c:	e0 ef       	ldi	r30, 0xF0	; 240
    105e:	f0 e0       	ldi	r31, 0x00	; 0
    1060:	80 81       	ld	r24, Z
    1062:	88 60       	ori	r24, 0x08	; 8
    1064:	80 83       	st	Z, r24

		#if defined(INTERRUPT_CONTROL_ENDPOINT)
		USB_INT_Enable(USB_INT_RXSTPI);
		#endif

		EVENT_USB_Device_Reset();
    1066:	be d1       	rcall	.+892    	; 0x13e4 <USB_Event_Stub>
		USB_ResetInterface();

		EVENT_USB_UIDChange();
	}
	#endif
}
    1068:	ff 91       	pop	r31
    106a:	ef 91       	pop	r30
    106c:	bf 91       	pop	r27
    106e:	af 91       	pop	r26
    1070:	9f 91       	pop	r25
    1072:	8f 91       	pop	r24
    1074:	7f 91       	pop	r23
    1076:	6f 91       	pop	r22
    1078:	5f 91       	pop	r21
    107a:	4f 91       	pop	r20
    107c:	3f 91       	pop	r19
    107e:	2f 91       	pop	r18
    1080:	0f 90       	pop	r0
    1082:	0b be       	out	0x3b, r0	; 59
    1084:	0f 90       	pop	r0
    1086:	0f be       	out	0x3f, r0	; 63
    1088:	0f 90       	pop	r0
    108a:	1f 90       	pop	r1
    108c:	18 95       	reti

0000108e <__vector_11>:

#if defined(INTERRUPT_CONTROL_ENDPOINT) && defined(USB_CAN_BE_DEVICE)
ISR(USB_COM_vect, ISR_BLOCK)
{
    108e:	1f 92       	push	r1
    1090:	0f 92       	push	r0
    1092:	0f b6       	in	r0, 0x3f	; 63
    1094:	0f 92       	push	r0
    1096:	11 24       	eor	r1, r1
    1098:	0b b6       	in	r0, 0x3b	; 59
    109a:	0f 92       	push	r0
    109c:	2f 93       	push	r18
    109e:	3f 93       	push	r19
    10a0:	4f 93       	push	r20
    10a2:	5f 93       	push	r21
    10a4:	6f 93       	push	r22
    10a6:	7f 93       	push	r23
    10a8:	8f 93       	push	r24
    10aa:	9f 93       	push	r25
    10ac:	af 93       	push	r26
    10ae:	bf 93       	push	r27
    10b0:	cf 93       	push	r28
    10b2:	ef 93       	push	r30
    10b4:	ff 93       	push	r31
			 */
			static inline uint8_t Endpoint_GetCurrentEndpoint(void) ATTR_WARN_UNUSED_RESULT ATTR_ALWAYS_INLINE;
			static inline uint8_t Endpoint_GetCurrentEndpoint(void)
			{
				#if !defined(CONTROL_ONLY_DEVICE)
					return ((UENUM & ENDPOINT_EPNUM_MASK) | Endpoint_GetEndpointDirection());
    10b6:	c0 91 e9 00 	lds	r28, 0x00E9
    10ba:	cf 70       	andi	r28, 0x0F	; 15
			 *  \return The currently selected endpoint's direction, as a \c ENDPOINT_DIR_* mask.
			 */
			static inline uint8_t Endpoint_GetEndpointDirection(void) ATTR_WARN_UNUSED_RESULT ATTR_ALWAYS_INLINE;
			static inline uint8_t Endpoint_GetEndpointDirection(void)
			{
				return (UECFG0X & (1 << EPDIR)) ? ENDPOINT_DIR_IN : ENDPOINT_DIR_OUT;
    10bc:	80 91 ec 00 	lds	r24, 0x00EC
			 */
			static inline void Endpoint_SelectEndpoint(const uint8_t Address) ATTR_ALWAYS_INLINE;
			static inline void Endpoint_SelectEndpoint(const uint8_t Address)
			{
				#if !defined(CONTROL_ONLY_DEVICE)
					UENUM = (Address & ENDPOINT_EPNUM_MASK);
    10c0:	10 92 e9 00 	sts	0x00E9, r1
						break;
					case USB_INT_SOFI:
						UDIEN  &= ~(1 << SOFE);
						break;
					case USB_INT_RXSTPI:
						UEIENX &= ~(1 << RXSTPE);
    10c4:	e0 ef       	ldi	r30, 0xF0	; 240
    10c6:	f0 e0       	ldi	r31, 0x00	; 0
    10c8:	80 81       	ld	r24, Z
    10ca:	87 7f       	andi	r24, 0xF7	; 247
    10cc:	80 83       	st	Z, r24
			static inline void GlobalInterruptEnable(void)
			{
				GCC_MEMORY_BARRIER();

				#if (ARCH == ARCH_AVR8)
				sei();
    10ce:	78 94       	sei
	Endpoint_SelectEndpoint(ENDPOINT_CONTROLEP);
	USB_INT_Disable(USB_INT_RXSTPI);

	GlobalInterruptEnable();

	USB_Device_ProcessControlRequest();
    10d0:	1d d0       	rcall	.+58     	; 0x110c <USB_Device_ProcessControlRequest>
    10d2:	e9 ee       	ldi	r30, 0xE9	; 233
    10d4:	f0 e0       	ldi	r31, 0x00	; 0
    10d6:	10 82       	st	Z, r1
						break;
					case USB_INT_SOFI:
						UDIEN  |= (1 << SOFE);
						break;
					case USB_INT_RXSTPI:
						UEIENX |= (1 << RXSTPE);
    10d8:	a0 ef       	ldi	r26, 0xF0	; 240
    10da:	b0 e0       	ldi	r27, 0x00	; 0
    10dc:	8c 91       	ld	r24, X
    10de:	88 60       	ori	r24, 0x08	; 8
    10e0:	8c 93       	st	X, r24
    10e2:	c0 83       	st	Z, r28

	Endpoint_SelectEndpoint(ENDPOINT_CONTROLEP);
	USB_INT_Enable(USB_INT_RXSTPI);
	Endpoint_SelectEndpoint(PrevSelectedEndpoint);
}
    10e4:	ff 91       	pop	r31
    10e6:	ef 91       	pop	r30
    10e8:	cf 91       	pop	r28
    10ea:	bf 91       	pop	r27
    10ec:	af 91       	pop	r26
    10ee:	9f 91       	pop	r25
    10f0:	8f 91       	pop	r24
    10f2:	7f 91       	pop	r23
    10f4:	6f 91       	pop	r22
    10f6:	5f 91       	pop	r21
    10f8:	4f 91       	pop	r20
    10fa:	3f 91       	pop	r19
    10fc:	2f 91       	pop	r18
    10fe:	0f 90       	pop	r0
    1100:	0b be       	out	0x3b, r0	; 59
    1102:	0f 90       	pop	r0
    1104:	0f be       	out	0x3f, r0	; 63
    1106:	0f 90       	pop	r0
    1108:	1f 90       	pop	r1
    110a:	18 95       	reti

0000110c <USB_Device_ProcessControlRequest>:
#if !defined(NO_DEVICE_REMOTE_WAKEUP)
bool    USB_Device_RemoteWakeupEnabled;
#endif

void USB_Device_ProcessControlRequest(void)
{
    110c:	0f 93       	push	r16
    110e:	1f 93       	push	r17
    1110:	cf 93       	push	r28
    1112:	df 93       	push	r29
    1114:	cd b7       	in	r28, 0x3d	; 61
    1116:	de b7       	in	r29, 0x3e	; 62
    1118:	aa 97       	sbiw	r28, 0x2a	; 42
    111a:	0f b6       	in	r0, 0x3f	; 63
    111c:	f8 94       	cli
    111e:	de bf       	out	0x3e, r29	; 62
    1120:	0f be       	out	0x3f, r0	; 63
    1122:	cd bf       	out	0x3d, r28	; 61
    1124:	e6 e7       	ldi	r30, 0x76	; 118
    1126:	f4 e0       	ldi	r31, 0x04	; 4
    1128:	8e e7       	ldi	r24, 0x7E	; 126
    112a:	94 e0       	ldi	r25, 0x04	; 4
			 *  \return Next byte in the currently selected endpoint's FIFO buffer.
			 */
			static inline uint8_t Endpoint_Read_8(void) ATTR_WARN_UNUSED_RESULT ATTR_ALWAYS_INLINE;
			static inline uint8_t Endpoint_Read_8(void)
			{
				return UEDATX;
    112c:	a1 ef       	ldi	r26, 0xF1	; 241
    112e:	b0 e0       	ldi	r27, 0x00	; 0
    1130:	2c 91       	ld	r18, X
	USB_ControlRequest.wLength       = Endpoint_Read_16_LE();
	#else
	uint8_t* RequestHeader = (uint8_t*)&USB_ControlRequest;

	for (uint8_t RequestHeaderByte = 0; RequestHeaderByte < sizeof(USB_Request_Header_t); RequestHeaderByte++)
	  *(RequestHeader++) = Endpoint_Read_8();
    1132:	21 93       	st	Z+, r18
	USB_ControlRequest.wIndex        = Endpoint_Read_16_LE();
	USB_ControlRequest.wLength       = Endpoint_Read_16_LE();
	#else
	uint8_t* RequestHeader = (uint8_t*)&USB_ControlRequest;

	for (uint8_t RequestHeaderByte = 0; RequestHeaderByte < sizeof(USB_Request_Header_t); RequestHeaderByte++)
    1134:	e8 17       	cp	r30, r24
    1136:	f9 07       	cpc	r31, r25
    1138:	d9 f7       	brne	.-10     	; 0x1130 <USB_Device_ProcessControlRequest+0x24>
	  *(RequestHeader++) = Endpoint_Read_8();
	#endif

	EVENT_USB_Device_ControlRequest();
    113a:	0e 94 27 12 	call	0x244e	; 0x244e <EVENT_USB_Device_ControlRequest>
			 *  \return Boolean \c true if the selected endpoint has received a SETUP packet, \c false otherwise.
			 */
			static inline bool Endpoint_IsSETUPReceived(void) ATTR_WARN_UNUSED_RESULT ATTR_ALWAYS_INLINE;
			static inline bool Endpoint_IsSETUPReceived(void)
			{
				return ((UEINTX & (1 << RXSTPI)) ? true : false);
    113e:	80 91 e8 00 	lds	r24, 0x00E8

	if (Endpoint_IsSETUPReceived())
    1142:	83 ff       	sbrs	r24, 3
    1144:	2a c1       	rjmp	.+596    	; 0x139a <USB_Device_ProcessControlRequest+0x28e>
	{
		uint8_t bmRequestType = USB_ControlRequest.bmRequestType;
    1146:	90 91 76 04 	lds	r25, 0x0476

		switch (USB_ControlRequest.bRequest)
    114a:	80 91 77 04 	lds	r24, 0x0477
    114e:	85 30       	cpi	r24, 0x05	; 5
    1150:	09 f4       	brne	.+2      	; 0x1154 <USB_Device_ProcessControlRequest+0x48>
    1152:	78 c0       	rjmp	.+240    	; 0x1244 <USB_Device_ProcessControlRequest+0x138>
    1154:	30 f4       	brcc	.+12     	; 0x1162 <USB_Device_ProcessControlRequest+0x56>
    1156:	81 30       	cpi	r24, 0x01	; 1
    1158:	b1 f1       	breq	.+108    	; 0x11c6 <USB_Device_ProcessControlRequest+0xba>
    115a:	68 f0       	brcs	.+26     	; 0x1176 <USB_Device_ProcessControlRequest+0x6a>
    115c:	83 30       	cpi	r24, 0x03	; 3
    115e:	99 f1       	breq	.+102    	; 0x11c6 <USB_Device_ProcessControlRequest+0xba>
    1160:	1c c1       	rjmp	.+568    	; 0x139a <USB_Device_ProcessControlRequest+0x28e>
    1162:	88 30       	cpi	r24, 0x08	; 8
    1164:	09 f4       	brne	.+2      	; 0x1168 <USB_Device_ProcessControlRequest+0x5c>
    1166:	e8 c0       	rjmp	.+464    	; 0x1338 <USB_Device_ProcessControlRequest+0x22c>
    1168:	89 30       	cpi	r24, 0x09	; 9
    116a:	09 f4       	brne	.+2      	; 0x116e <USB_Device_ProcessControlRequest+0x62>
    116c:	f5 c0       	rjmp	.+490    	; 0x1358 <USB_Device_ProcessControlRequest+0x24c>
    116e:	86 30       	cpi	r24, 0x06	; 6
    1170:	09 f0       	breq	.+2      	; 0x1174 <USB_Device_ProcessControlRequest+0x68>
    1172:	13 c1       	rjmp	.+550    	; 0x139a <USB_Device_ProcessControlRequest+0x28e>
    1174:	89 c0       	rjmp	.+274    	; 0x1288 <USB_Device_ProcessControlRequest+0x17c>
		{
			case REQ_GetStatus:
				if ((bmRequestType == (REQDIR_DEVICETOHOST | REQTYPE_STANDARD | REQREC_DEVICE)) ||
    1176:	90 38       	cpi	r25, 0x80	; 128
    1178:	21 f0       	breq	.+8      	; 0x1182 <USB_Device_ProcessControlRequest+0x76>
    117a:	92 38       	cpi	r25, 0x82	; 130
    117c:	09 f0       	breq	.+2      	; 0x1180 <USB_Device_ProcessControlRequest+0x74>
    117e:	0d c1       	rjmp	.+538    	; 0x139a <USB_Device_ProcessControlRequest+0x28e>
    1180:	08 c0       	rjmp	.+16     	; 0x1192 <USB_Device_ProcessControlRequest+0x86>
	Endpoint_ClearOUT();
}

static void USB_Device_GetStatus(void)
{
	uint8_t CurrentStatus = 0;
    1182:	80 91 73 04 	lds	r24, 0x0473
			if (USB_Device_CurrentlySelfPowered)
			  CurrentStatus |= FEATURE_SELFPOWERED_ENABLED;
			#endif

			#if !defined(NO_DEVICE_REMOTE_WAKEUP)
			if (USB_Device_RemoteWakeupEnabled)
    1186:	90 91 74 04 	lds	r25, 0x0474
    118a:	99 23       	and	r25, r25
    118c:	71 f0       	breq	.+28     	; 0x11aa <USB_Device_ProcessControlRequest+0x9e>
			  CurrentStatus |= FEATURE_REMOTE_WAKEUP_ENABLED;
    118e:	82 60       	ori	r24, 0x02	; 2
    1190:	0c c0       	rjmp	.+24     	; 0x11aa <USB_Device_ProcessControlRequest+0x9e>
			 */
			static inline void Endpoint_SelectEndpoint(const uint8_t Address) ATTR_ALWAYS_INLINE;
			static inline void Endpoint_SelectEndpoint(const uint8_t Address)
			{
				#if !defined(CONTROL_ONLY_DEVICE)
					UENUM = (Address & ENDPOINT_EPNUM_MASK);
    1192:	80 91 7a 04 	lds	r24, 0x047A
    1196:	8f 70       	andi	r24, 0x0F	; 15
    1198:	e9 ee       	ldi	r30, 0xE9	; 233
    119a:	f0 e0       	ldi	r31, 0x00	; 0
    119c:	80 83       	st	Z, r24
			 *  \return Boolean \c true if the currently selected endpoint is stalled, \c false otherwise.
			 */
			static inline bool Endpoint_IsStalled(void) ATTR_WARN_UNUSED_RESULT ATTR_ALWAYS_INLINE;
			static inline bool Endpoint_IsStalled(void)
			{
				return ((UECONX & (1 << STALLRQ)) ? true : false);
    119e:	80 91 eb 00 	lds	r24, 0x00EB
    11a2:	85 fb       	bst	r24, 5
    11a4:	88 27       	eor	r24, r24
    11a6:	80 f9       	bld	r24, 0
			 */
			static inline void Endpoint_SelectEndpoint(const uint8_t Address) ATTR_ALWAYS_INLINE;
			static inline void Endpoint_SelectEndpoint(const uint8_t Address)
			{
				#if !defined(CONTROL_ONLY_DEVICE)
					UENUM = (Address & ENDPOINT_EPNUM_MASK);
    11a8:	10 82       	st	Z, r1
			 *  \note This is not applicable for non CONTROL type endpoints.
			 */
			static inline void Endpoint_ClearSETUP(void) ATTR_ALWAYS_INLINE;
			static inline void Endpoint_ClearSETUP(void)
			{
				UEINTX &= ~(1 << RXSTPI);
    11aa:	e8 ee       	ldi	r30, 0xE8	; 232
    11ac:	f0 e0       	ldi	r31, 0x00	; 0
    11ae:	90 81       	ld	r25, Z
    11b0:	97 7f       	andi	r25, 0xF7	; 247
    11b2:	90 83       	st	Z, r25
			 *  \param[in] Data  Data to write to the currently selected endpoint's FIFO buffer.
			 */
			static inline void Endpoint_Write_16_LE(const uint16_t Data) ATTR_ALWAYS_INLINE;
			static inline void Endpoint_Write_16_LE(const uint16_t Data)
			{
				UEDATX = (Data & 0xFF);
    11b4:	a1 ef       	ldi	r26, 0xF1	; 241
    11b6:	b0 e0       	ldi	r27, 0x00	; 0
    11b8:	8c 93       	st	X, r24
				UEDATX = (Data >> 8);
    11ba:	1c 92       	st	X, r1
			 */
			static inline void Endpoint_ClearIN(void) ATTR_ALWAYS_INLINE;
			static inline void Endpoint_ClearIN(void)
			{
				#if !defined(CONTROL_ONLY_DEVICE)
					UEINTX &= ~((1 << TXINI) | (1 << FIFOCON));
    11bc:	80 81       	ld	r24, Z
    11be:	8e 77       	andi	r24, 0x7E	; 126
    11c0:	80 83       	st	Z, r24
	Endpoint_ClearSETUP();

	Endpoint_Write_16_LE(CurrentStatus);
	Endpoint_ClearIN();

	Endpoint_ClearStatusStage();
    11c2:	dd dd       	rcall	.-1094   	; 0xd7e <Endpoint_ClearStatusStage>
    11c4:	ea c0       	rjmp	.+468    	; 0x139a <USB_Device_ProcessControlRequest+0x28e>
				}

				break;
			case REQ_ClearFeature:
			case REQ_SetFeature:
				if ((bmRequestType == (REQDIR_HOSTTODEVICE | REQTYPE_STANDARD | REQREC_DEVICE)) ||
    11c6:	99 23       	and	r25, r25
    11c8:	09 f4       	brne	.+2      	; 0x11cc <USB_Device_ProcessControlRequest+0xc0>
    11ca:	f6 c0       	rjmp	.+492    	; 0x13b8 <USB_Device_ProcessControlRequest+0x2ac>
    11cc:	92 30       	cpi	r25, 0x02	; 2
    11ce:	09 f0       	breq	.+2      	; 0x11d2 <USB_Device_ProcessControlRequest+0xc6>
    11d0:	e4 c0       	rjmp	.+456    	; 0x139a <USB_Device_ProcessControlRequest+0x28e>
    11d2:	f7 c0       	rjmp	.+494    	; 0x13c2 <USB_Device_ProcessControlRequest+0x2b6>
	switch (USB_ControlRequest.bmRequestType & CONTROL_REQTYPE_RECIPIENT)
	{
		#if !defined(NO_DEVICE_REMOTE_WAKEUP)
		case REQREC_DEVICE:
			if ((uint8_t)USB_ControlRequest.wValue == FEATURE_SEL_DeviceRemoteWakeup)
			  USB_Device_RemoteWakeupEnabled = (USB_ControlRequest.bRequest == REQ_SetFeature);
    11d4:	91 e0       	ldi	r25, 0x01	; 1
    11d6:	83 30       	cpi	r24, 0x03	; 3
    11d8:	09 f0       	breq	.+2      	; 0x11dc <USB_Device_ProcessControlRequest+0xd0>
    11da:	90 e0       	ldi	r25, 0x00	; 0
    11dc:	90 93 74 04 	sts	0x0474, r25
    11e0:	28 c0       	rjmp	.+80     	; 0x1232 <USB_Device_ProcessControlRequest+0x126>
		#endif
		#if !defined(CONTROL_ONLY_DEVICE)
		case REQREC_ENDPOINT:
			if ((uint8_t)USB_ControlRequest.wValue == FEATURE_SEL_EndpointHalt)
			{
				uint8_t EndpointIndex = ((uint8_t)USB_ControlRequest.wIndex & ENDPOINT_EPNUM_MASK);
    11e2:	20 91 7a 04 	lds	r18, 0x047A
    11e6:	2f 70       	andi	r18, 0x0F	; 15

				if (EndpointIndex == ENDPOINT_CONTROLEP)
    11e8:	09 f4       	brne	.+2      	; 0x11ec <USB_Device_ProcessControlRequest+0xe0>
    11ea:	d7 c0       	rjmp	.+430    	; 0x139a <USB_Device_ProcessControlRequest+0x28e>
			 */
			static inline void Endpoint_SelectEndpoint(const uint8_t Address) ATTR_ALWAYS_INLINE;
			static inline void Endpoint_SelectEndpoint(const uint8_t Address)
			{
				#if !defined(CONTROL_ONLY_DEVICE)
					UENUM = (Address & ENDPOINT_EPNUM_MASK);
    11ec:	20 93 e9 00 	sts	0x00E9, r18
			 * \return Boolean \c true if the currently selected endpoint is enabled, \c false otherwise.
			 */
			static inline bool Endpoint_IsEnabled(void) ATTR_WARN_UNUSED_RESULT ATTR_ALWAYS_INLINE;
			static inline bool Endpoint_IsEnabled(void)
			{
				return ((UECONX & (1 << EPEN)) ? true : false);
    11f0:	80 91 eb 00 	lds	r24, 0x00EB
				  return;

				Endpoint_SelectEndpoint(EndpointIndex);

				if (Endpoint_IsEnabled())
    11f4:	80 ff       	sbrs	r24, 0
    11f6:	1d c0       	rjmp	.+58     	; 0x1232 <USB_Device_ProcessControlRequest+0x126>
				{
					if (USB_ControlRequest.bRequest == REQ_SetFeature)
    11f8:	80 91 77 04 	lds	r24, 0x0477
    11fc:	83 30       	cpi	r24, 0x03	; 3
    11fe:	31 f4       	brne	.+12     	; 0x120c <USB_Device_ProcessControlRequest+0x100>
			 *  \ingroup Group_EndpointPacketManagement_AVR8
			 */
			static inline void Endpoint_StallTransaction(void) ATTR_ALWAYS_INLINE;
			static inline void Endpoint_StallTransaction(void)
			{
				UECONX |= (1 << STALLRQ);
    1200:	eb ee       	ldi	r30, 0xEB	; 235
    1202:	f0 e0       	ldi	r31, 0x00	; 0
    1204:	80 81       	ld	r24, Z
    1206:	80 62       	ori	r24, 0x20	; 32
    1208:	80 83       	st	Z, r24
    120a:	13 c0       	rjmp	.+38     	; 0x1232 <USB_Device_ProcessControlRequest+0x126>
			 *  \ingroup Group_EndpointPacketManagement_AVR8
			 */
			static inline void Endpoint_ClearStall(void) ATTR_ALWAYS_INLINE;
			static inline void Endpoint_ClearStall(void)
			{
				UECONX |= (1 << STALLRQC);
    120c:	eb ee       	ldi	r30, 0xEB	; 235
    120e:	f0 e0       	ldi	r31, 0x00	; 0
    1210:	80 81       	ld	r24, Z
    1212:	80 61       	ori	r24, 0x10	; 16
    1214:	80 83       	st	Z, r24
			 *  \param[in] Address  Endpoint address whose FIFO buffers are to be reset.
			 */
			static inline void Endpoint_ResetEndpoint(const uint8_t Address) ATTR_ALWAYS_INLINE;
			static inline void Endpoint_ResetEndpoint(const uint8_t Address)
			{
				UERST = (1 << (Address & ENDPOINT_EPNUM_MASK));
    1216:	81 e0       	ldi	r24, 0x01	; 1
    1218:	90 e0       	ldi	r25, 0x00	; 0
    121a:	02 c0       	rjmp	.+4      	; 0x1220 <USB_Device_ProcessControlRequest+0x114>
    121c:	88 0f       	add	r24, r24
    121e:	99 1f       	adc	r25, r25
    1220:	2a 95       	dec	r18
    1222:	e2 f7       	brpl	.-8      	; 0x121c <USB_Device_ProcessControlRequest+0x110>
    1224:	aa ee       	ldi	r26, 0xEA	; 234
    1226:	b0 e0       	ldi	r27, 0x00	; 0
    1228:	8c 93       	st	X, r24
				UERST = 0;
    122a:	1c 92       	st	X, r1

			/** Resets the data toggle of the currently selected endpoint. */
			static inline void Endpoint_ResetDataToggle(void) ATTR_ALWAYS_INLINE;
			static inline void Endpoint_ResetDataToggle(void)
			{
				UECONX |= (1 << RSTDT);
    122c:	80 81       	ld	r24, Z
    122e:	88 60       	ori	r24, 0x08	; 8
    1230:	80 83       	st	Z, r24
			 */
			static inline void Endpoint_SelectEndpoint(const uint8_t Address) ATTR_ALWAYS_INLINE;
			static inline void Endpoint_SelectEndpoint(const uint8_t Address)
			{
				#if !defined(CONTROL_ONLY_DEVICE)
					UENUM = (Address & ENDPOINT_EPNUM_MASK);
    1232:	10 92 e9 00 	sts	0x00E9, r1
			 *  \note This is not applicable for non CONTROL type endpoints.
			 */
			static inline void Endpoint_ClearSETUP(void) ATTR_ALWAYS_INLINE;
			static inline void Endpoint_ClearSETUP(void)
			{
				UEINTX &= ~(1 << RXSTPI);
    1236:	e8 ee       	ldi	r30, 0xE8	; 232
    1238:	f0 e0       	ldi	r31, 0x00	; 0
    123a:	80 81       	ld	r24, Z
    123c:	87 7f       	andi	r24, 0xF7	; 247
    123e:	80 83       	st	Z, r24

	Endpoint_SelectEndpoint(ENDPOINT_CONTROLEP);

	Endpoint_ClearSETUP();

	Endpoint_ClearStatusStage();
    1240:	9e dd       	rcall	.-1220   	; 0xd7e <Endpoint_ClearStatusStage>
    1242:	ab c0       	rjmp	.+342    	; 0x139a <USB_Device_ProcessControlRequest+0x28e>
					USB_Device_ClearSetFeature();
				}

				break;
			case REQ_SetAddress:
				if (bmRequestType == (REQDIR_HOSTTODEVICE | REQTYPE_STANDARD | REQREC_DEVICE))
    1244:	91 11       	cpse	r25, r1
    1246:	a9 c0       	rjmp	.+338    	; 0x139a <USB_Device_ProcessControlRequest+0x28e>
	}
}

static void USB_Device_SetAddress(void)
{
	uint8_t DeviceAddress = (USB_ControlRequest.wValue & 0x7F);
    1248:	10 91 78 04 	lds	r17, 0x0478
    124c:	1f 77       	andi	r17, 0x7F	; 127
			#endif

			static inline void USB_Device_SetDeviceAddress(const uint8_t Address) ATTR_ALWAYS_INLINE;
			static inline void USB_Device_SetDeviceAddress(const uint8_t Address)
			{
				UDADDR = (UDADDR & (1 << ADDEN)) | (Address & 0x7F);
    124e:	e3 ee       	ldi	r30, 0xE3	; 227
    1250:	f0 e0       	ldi	r31, 0x00	; 0
    1252:	80 81       	ld	r24, Z
    1254:	80 78       	andi	r24, 0x80	; 128
    1256:	81 2b       	or	r24, r17
    1258:	80 83       	st	Z, r24
    125a:	e8 ee       	ldi	r30, 0xE8	; 232
    125c:	f0 e0       	ldi	r31, 0x00	; 0
    125e:	80 81       	ld	r24, Z
    1260:	87 7f       	andi	r24, 0xF7	; 247
    1262:	80 83       	st	Z, r24

	USB_Device_SetDeviceAddress(DeviceAddress);

	Endpoint_ClearSETUP();

	Endpoint_ClearStatusStage();
    1264:	8c dd       	rcall	.-1256   	; 0xd7e <Endpoint_ClearStatusStage>
			 *  \return Boolean \c true if the current endpoint is ready for an IN packet, \c false otherwise.
			 */
			static inline bool Endpoint_IsINReady(void) ATTR_WARN_UNUSED_RESULT ATTR_ALWAYS_INLINE;
			static inline bool Endpoint_IsINReady(void)
			{
				return ((UEINTX & (1 << TXINI)) ? true : false);
    1266:	e8 ee       	ldi	r30, 0xE8	; 232
    1268:	f0 e0       	ldi	r31, 0x00	; 0
    126a:	80 81       	ld	r24, Z

	while (!(Endpoint_IsINReady()));
    126c:	80 ff       	sbrs	r24, 0
    126e:	fd cf       	rjmp	.-6      	; 0x126a <USB_Device_ProcessControlRequest+0x15e>
			static inline void USB_Device_EnableDeviceAddress(const uint8_t Address) ATTR_ALWAYS_INLINE;
			static inline void USB_Device_EnableDeviceAddress(const uint8_t Address)
			{
				(void)Address;

				UDADDR |= (1 << ADDEN);
    1270:	e3 ee       	ldi	r30, 0xE3	; 227
    1272:	f0 e0       	ldi	r31, 0x00	; 0
    1274:	80 81       	ld	r24, Z
    1276:	80 68       	ori	r24, 0x80	; 128
    1278:	80 83       	st	Z, r24

	USB_Device_EnableDeviceAddress(DeviceAddress);

	USB_DeviceState = (DeviceAddress) ? DEVICE_STATE_Addressed : DEVICE_STATE_Default;
    127a:	11 23       	and	r17, r17
    127c:	11 f0       	breq	.+4      	; 0x1282 <USB_Device_ProcessControlRequest+0x176>
    127e:	83 e0       	ldi	r24, 0x03	; 3
    1280:	01 c0       	rjmp	.+2      	; 0x1284 <USB_Device_ProcessControlRequest+0x178>
    1282:	82 e0       	ldi	r24, 0x02	; 2
    1284:	8e bb       	out	0x1e, r24	; 30
    1286:	89 c0       	rjmp	.+274    	; 0x139a <USB_Device_ProcessControlRequest+0x28e>
				if (bmRequestType == (REQDIR_HOSTTODEVICE | REQTYPE_STANDARD | REQREC_DEVICE))
				  USB_Device_SetAddress();

				break;
			case REQ_GetDescriptor:
				if ((bmRequestType == (REQDIR_DEVICETOHOST | REQTYPE_STANDARD | REQREC_DEVICE)) ||
    1288:	90 58       	subi	r25, 0x80	; 128
    128a:	92 30       	cpi	r25, 0x02	; 2
    128c:	08 f0       	brcs	.+2      	; 0x1290 <USB_Device_ProcessControlRequest+0x184>
    128e:	85 c0       	rjmp	.+266    	; 0x139a <USB_Device_ProcessControlRequest+0x28e>
	    !(defined(USE_FLASH_DESCRIPTORS) || defined(USE_EEPROM_DESCRIPTORS) || defined(USE_RAM_DESCRIPTORS))
	uint8_t DescriptorAddressSpace;
	#endif

	#if !defined(NO_INTERNAL_SERIAL) && (USE_INTERNAL_SERIAL != NO_DESCRIPTOR)
	if (USB_ControlRequest.wValue == ((DTYPE_String << 8) | USE_INTERNAL_SERIAL))
    1290:	80 91 78 04 	lds	r24, 0x0478
    1294:	90 91 79 04 	lds	r25, 0x0479
    1298:	8c 3d       	cpi	r24, 0xDC	; 220
    129a:	23 e0       	ldi	r18, 0x03	; 3
    129c:	92 07       	cpc	r25, r18
    129e:	99 f5       	brne	.+102    	; 0x1306 <USB_Device_ProcessControlRequest+0x1fa>
	{
		USB_Descriptor_Header_t Header;
		uint16_t                UnicodeString[INTERNAL_SERIAL_LENGTH_BITS / 4];
	} SignatureDescriptor;

	SignatureDescriptor.Header.Type = DTYPE_String;
    12a0:	83 e0       	ldi	r24, 0x03	; 3
    12a2:	8a 83       	std	Y+2, r24	; 0x02
	SignatureDescriptor.Header.Size = USB_STRING_LEN(INTERNAL_SERIAL_LENGTH_BITS / 4);
    12a4:	8a e2       	ldi	r24, 0x2A	; 42
    12a6:	89 83       	std	Y+1, r24	; 0x01
			static inline uint_reg_t GetGlobalInterruptMask(void)
			{
				GCC_MEMORY_BARRIER();

				#if (ARCH == ARCH_AVR8)
				return SREG;
    12a8:	5f b7       	in	r21, 0x3f	; 63
			static inline void GlobalInterruptDisable(void)
			{
				GCC_MEMORY_BARRIER();

				#if (ARCH == ARCH_AVR8)
				cli();
    12aa:	f8 94       	cli
				__builtin_ssrf(AVR32_SR_GM_OFFSET);
				#elif (ARCH == ARCH_XMEGA)
				cli();
				#endif

				GCC_MEMORY_BARRIER();
    12ac:	de 01       	movw	r26, r28
    12ae:	13 96       	adiw	r26, 0x03	; 3
				uint_reg_t CurrentGlobalInt = GetGlobalInterruptMask();
				GlobalInterruptDisable();

				uint8_t SigReadAddress = INTERNAL_SERIAL_START_ADDRESS;

				for (uint8_t SerialCharNum = 0; SerialCharNum < (INTERNAL_SERIAL_LENGTH_BITS / 4); SerialCharNum++)
    12b0:	20 e0       	ldi	r18, 0x00	; 0
			static inline void USB_Device_GetSerialString(uint16_t* const UnicodeString)
			{
				uint_reg_t CurrentGlobalInt = GetGlobalInterruptMask();
				GlobalInterruptDisable();

				uint8_t SigReadAddress = INTERNAL_SERIAL_START_ADDRESS;
    12b2:	3e e0       	ldi	r19, 0x0E	; 14

				for (uint8_t SerialCharNum = 0; SerialCharNum < (INTERNAL_SERIAL_LENGTH_BITS / 4); SerialCharNum++)
				{
					uint8_t SerialByte = boot_signature_byte_get(SigReadAddress);
    12b4:	41 e2       	ldi	r20, 0x21	; 33
    12b6:	e3 2f       	mov	r30, r19
    12b8:	f0 e0       	ldi	r31, 0x00	; 0
    12ba:	40 93 57 00 	sts	0x0057, r20
    12be:	84 91       	lpm	r24, Z

					if (SerialCharNum & 0x01)
    12c0:	20 ff       	sbrs	r18, 0
    12c2:	03 c0       	rjmp	.+6      	; 0x12ca <USB_Device_ProcessControlRequest+0x1be>
					{
						SerialByte >>= 4;
    12c4:	82 95       	swap	r24
    12c6:	8f 70       	andi	r24, 0x0F	; 15
						SigReadAddress++;
    12c8:	3f 5f       	subi	r19, 0xFF	; 255
					}

					SerialByte &= 0x0F;
    12ca:	8f 70       	andi	r24, 0x0F	; 15

					UnicodeString[SerialCharNum] = cpu_to_le16((SerialByte >= 10) ?
    12cc:	8a 30       	cpi	r24, 0x0A	; 10
    12ce:	18 f0       	brcs	.+6      	; 0x12d6 <USB_Device_ProcessControlRequest+0x1ca>
    12d0:	90 e0       	ldi	r25, 0x00	; 0
    12d2:	c7 96       	adiw	r24, 0x37	; 55
    12d4:	02 c0       	rjmp	.+4      	; 0x12da <USB_Device_ProcessControlRequest+0x1ce>
    12d6:	90 e0       	ldi	r25, 0x00	; 0
    12d8:	c0 96       	adiw	r24, 0x30	; 48
    12da:	8d 93       	st	X+, r24
    12dc:	9d 93       	st	X+, r25
				uint_reg_t CurrentGlobalInt = GetGlobalInterruptMask();
				GlobalInterruptDisable();

				uint8_t SigReadAddress = INTERNAL_SERIAL_START_ADDRESS;

				for (uint8_t SerialCharNum = 0; SerialCharNum < (INTERNAL_SERIAL_LENGTH_BITS / 4); SerialCharNum++)
    12de:	2f 5f       	subi	r18, 0xFF	; 255
    12e0:	24 31       	cpi	r18, 0x14	; 20
    12e2:	49 f7       	brne	.-46     	; 0x12b6 <USB_Device_ProcessControlRequest+0x1aa>
			static inline void SetGlobalInterruptMask(const uint_reg_t GlobalIntState)
			{
				GCC_MEMORY_BARRIER();

				#if (ARCH == ARCH_AVR8)
				SREG = GlobalIntState;
    12e4:	5f bf       	out	0x3f, r21	; 63
			 *  \note This is not applicable for non CONTROL type endpoints.
			 */
			static inline void Endpoint_ClearSETUP(void) ATTR_ALWAYS_INLINE;
			static inline void Endpoint_ClearSETUP(void)
			{
				UEINTX &= ~(1 << RXSTPI);
    12e6:	08 ee       	ldi	r16, 0xE8	; 232
    12e8:	10 e0       	ldi	r17, 0x00	; 0
    12ea:	f8 01       	movw	r30, r16
    12ec:	80 81       	ld	r24, Z
    12ee:	87 7f       	andi	r24, 0xF7	; 247
    12f0:	80 83       	st	Z, r24

	USB_Device_GetSerialString(SignatureDescriptor.UnicodeString);

	Endpoint_ClearSETUP();

	Endpoint_Write_Control_Stream_LE(&SignatureDescriptor, sizeof(SignatureDescriptor));
    12f2:	6a e2       	ldi	r22, 0x2A	; 42
    12f4:	70 e0       	ldi	r23, 0x00	; 0
    12f6:	ce 01       	movw	r24, r28
    12f8:	01 96       	adiw	r24, 0x01	; 1
    12fa:	8f db       	rcall	.-2274   	; 0xa1a <Endpoint_Write_Control_Stream_LE>
			 */
			static inline void Endpoint_ClearOUT(void) ATTR_ALWAYS_INLINE;
			static inline void Endpoint_ClearOUT(void)
			{
				#if !defined(CONTROL_ONLY_DEVICE)
					UEINTX &= ~((1 << RXOUTI) | (1 << FIFOCON));
    12fc:	f8 01       	movw	r30, r16
    12fe:	80 81       	ld	r24, Z
    1300:	8b 77       	andi	r24, 0x7B	; 123
    1302:	80 83       	st	Z, r24
    1304:	4a c0       	rjmp	.+148    	; 0x139a <USB_Device_ProcessControlRequest+0x28e>
		USB_Device_GetInternalSerialDescriptor();
		return;
	}
	#endif

	if ((DescriptorSize = CALLBACK_USB_GetDescriptor(USB_ControlRequest.wValue, USB_ControlRequest.wIndex,
    1306:	ae 01       	movw	r20, r28
    1308:	4f 5f       	subi	r20, 0xFF	; 255
    130a:	5f 4f       	sbci	r21, 0xFF	; 255
    130c:	60 91 7a 04 	lds	r22, 0x047A
    1310:	0e 94 a9 00 	call	0x152	; 0x152 <CALLBACK_USB_GetDescriptor>
    1314:	00 97       	sbiw	r24, 0x00	; 0
    1316:	09 f4       	brne	.+2      	; 0x131a <USB_Device_ProcessControlRequest+0x20e>
    1318:	40 c0       	rjmp	.+128    	; 0x139a <USB_Device_ProcessControlRequest+0x28e>
			 *  \note This is not applicable for non CONTROL type endpoints.
			 */
			static inline void Endpoint_ClearSETUP(void) ATTR_ALWAYS_INLINE;
			static inline void Endpoint_ClearSETUP(void)
			{
				UEINTX &= ~(1 << RXSTPI);
    131a:	08 ee       	ldi	r16, 0xE8	; 232
    131c:	10 e0       	ldi	r17, 0x00	; 0
    131e:	f8 01       	movw	r30, r16
    1320:	20 81       	ld	r18, Z
    1322:	27 7f       	andi	r18, 0xF7	; 247
    1324:	20 83       	st	Z, r18
	#if defined(USE_RAM_DESCRIPTORS) || !defined(ARCH_HAS_MULTI_ADDRESS_SPACE)
	Endpoint_Write_Control_Stream_LE(DescriptorPointer, DescriptorSize);
	#elif defined(USE_EEPROM_DESCRIPTORS)
	Endpoint_Write_Control_EStream_LE(DescriptorPointer, DescriptorSize);
	#elif defined(USE_FLASH_DESCRIPTORS)
	Endpoint_Write_Control_PStream_LE(DescriptorPointer, DescriptorSize);
    1326:	bc 01       	movw	r22, r24
    1328:	89 81       	ldd	r24, Y+1	; 0x01
    132a:	9a 81       	ldd	r25, Y+2	; 0x02
    132c:	ed db       	rcall	.-2086   	; 0xb08 <Endpoint_Write_Control_PStream_LE>
			 */
			static inline void Endpoint_ClearOUT(void) ATTR_ALWAYS_INLINE;
			static inline void Endpoint_ClearOUT(void)
			{
				#if !defined(CONTROL_ONLY_DEVICE)
					UEINTX &= ~((1 << RXOUTI) | (1 << FIFOCON));
    132e:	f8 01       	movw	r30, r16
    1330:	80 81       	ld	r24, Z
    1332:	8b 77       	andi	r24, 0x7B	; 123
    1334:	80 83       	st	Z, r24
    1336:	31 c0       	rjmp	.+98     	; 0x139a <USB_Device_ProcessControlRequest+0x28e>
					USB_Device_GetDescriptor();
				}

				break;
			case REQ_GetConfiguration:
				if (bmRequestType == (REQDIR_DEVICETOHOST | REQTYPE_STANDARD | REQREC_DEVICE))
    1338:	90 38       	cpi	r25, 0x80	; 128
    133a:	79 f5       	brne	.+94     	; 0x139a <USB_Device_ProcessControlRequest+0x28e>
			 *  \note This is not applicable for non CONTROL type endpoints.
			 */
			static inline void Endpoint_ClearSETUP(void) ATTR_ALWAYS_INLINE;
			static inline void Endpoint_ClearSETUP(void)
			{
				UEINTX &= ~(1 << RXSTPI);
    133c:	e8 ee       	ldi	r30, 0xE8	; 232
    133e:	f0 e0       	ldi	r31, 0x00	; 0
    1340:	80 81       	ld	r24, Z
    1342:	87 7f       	andi	r24, 0xF7	; 247
    1344:	80 83       	st	Z, r24

static void USB_Device_GetConfiguration(void)
{
	Endpoint_ClearSETUP();

	Endpoint_Write_8(USB_Device_ConfigurationNumber);
    1346:	80 91 72 04 	lds	r24, 0x0472
			 *  \param[in] Data  Data to write into the the currently selected endpoint's FIFO buffer.
			 */
			static inline void Endpoint_Write_8(const uint8_t Data) ATTR_ALWAYS_INLINE;
			static inline void Endpoint_Write_8(const uint8_t Data)
			{
				UEDATX = Data;
    134a:	80 93 f1 00 	sts	0x00F1, r24
			 */
			static inline void Endpoint_ClearIN(void) ATTR_ALWAYS_INLINE;
			static inline void Endpoint_ClearIN(void)
			{
				#if !defined(CONTROL_ONLY_DEVICE)
					UEINTX &= ~((1 << TXINI) | (1 << FIFOCON));
    134e:	80 81       	ld	r24, Z
    1350:	8e 77       	andi	r24, 0x7E	; 126
    1352:	80 83       	st	Z, r24
	Endpoint_ClearIN();

	Endpoint_ClearStatusStage();
    1354:	14 dd       	rcall	.-1496   	; 0xd7e <Endpoint_ClearStatusStage>
    1356:	21 c0       	rjmp	.+66     	; 0x139a <USB_Device_ProcessControlRequest+0x28e>
				if (bmRequestType == (REQDIR_DEVICETOHOST | REQTYPE_STANDARD | REQREC_DEVICE))
				  USB_Device_GetConfiguration();

				break;
			case REQ_SetConfiguration:
				if (bmRequestType == (REQDIR_HOSTTODEVICE | REQTYPE_STANDARD | REQREC_DEVICE))
    1358:	91 11       	cpse	r25, r1
    135a:	1f c0       	rjmp	.+62     	; 0x139a <USB_Device_ProcessControlRequest+0x28e>
}

static void USB_Device_SetConfiguration(void)
{
	#if defined(FIXED_NUM_CONFIGURATIONS)
	if ((uint8_t)USB_ControlRequest.wValue > FIXED_NUM_CONFIGURATIONS)
    135c:	80 91 78 04 	lds	r24, 0x0478
    1360:	82 30       	cpi	r24, 0x02	; 2
    1362:	d8 f4       	brcc	.+54     	; 0x139a <USB_Device_ProcessControlRequest+0x28e>
			 *  \note This is not applicable for non CONTROL type endpoints.
			 */
			static inline void Endpoint_ClearSETUP(void) ATTR_ALWAYS_INLINE;
			static inline void Endpoint_ClearSETUP(void)
			{
				UEINTX &= ~(1 << RXSTPI);
    1364:	e8 ee       	ldi	r30, 0xE8	; 232
    1366:	f0 e0       	ldi	r31, 0x00	; 0
    1368:	80 81       	ld	r24, Z
    136a:	87 7f       	andi	r24, 0xF7	; 247
    136c:	80 83       	st	Z, r24
	#endif
	#endif

	Endpoint_ClearSETUP();

	USB_Device_ConfigurationNumber = (uint8_t)USB_ControlRequest.wValue;
    136e:	80 91 78 04 	lds	r24, 0x0478
    1372:	80 93 72 04 	sts	0x0472, r24

	Endpoint_ClearStatusStage();
    1376:	03 dd       	rcall	.-1530   	; 0xd7e <Endpoint_ClearStatusStage>

	if (USB_Device_ConfigurationNumber)
    1378:	80 91 72 04 	lds	r24, 0x0472
    137c:	88 23       	and	r24, r24
    137e:	19 f0       	breq	.+6      	; 0x1386 <USB_Device_ProcessControlRequest+0x27a>
	  USB_DeviceState = DEVICE_STATE_Configured;
    1380:	84 e0       	ldi	r24, 0x04	; 4
    1382:	8e bb       	out	0x1e, r24	; 30
    1384:	08 c0       	rjmp	.+16     	; 0x1396 <USB_Device_ProcessControlRequest+0x28a>
			}

			static inline bool USB_Device_IsAddressSet(void) ATTR_ALWAYS_INLINE ATTR_WARN_UNUSED_RESULT;
			static inline bool USB_Device_IsAddressSet(void)
			{
				return (UDADDR & (1 << ADDEN));
    1386:	80 91 e3 00 	lds	r24, 0x00E3
	else
	  USB_DeviceState = (USB_Device_IsAddressSet()) ? DEVICE_STATE_Configured : DEVICE_STATE_Powered;
    138a:	88 23       	and	r24, r24
    138c:	14 f4       	brge	.+4      	; 0x1392 <USB_Device_ProcessControlRequest+0x286>
    138e:	84 e0       	ldi	r24, 0x04	; 4
    1390:	01 c0       	rjmp	.+2      	; 0x1394 <USB_Device_ProcessControlRequest+0x288>
    1392:	81 e0       	ldi	r24, 0x01	; 1
    1394:	8e bb       	out	0x1e, r24	; 30

	EVENT_USB_Device_ConfigurationChanged();
    1396:	0e 94 22 12 	call	0x2444	; 0x2444 <EVENT_USB_Device_ConfigurationChanged>
			 *  \return Boolean \c true if the selected endpoint has received a SETUP packet, \c false otherwise.
			 */
			static inline bool Endpoint_IsSETUPReceived(void) ATTR_WARN_UNUSED_RESULT ATTR_ALWAYS_INLINE;
			static inline bool Endpoint_IsSETUPReceived(void)
			{
				return ((UEINTX & (1 << RXSTPI)) ? true : false);
    139a:	80 91 e8 00 	lds	r24, 0x00E8
			default:
				break;
		}
	}

	if (Endpoint_IsSETUPReceived())
    139e:	83 ff       	sbrs	r24, 3
    13a0:	16 c0       	rjmp	.+44     	; 0x13ce <USB_Device_ProcessControlRequest+0x2c2>
			 *  \note This is not applicable for non CONTROL type endpoints.
			 */
			static inline void Endpoint_ClearSETUP(void) ATTR_ALWAYS_INLINE;
			static inline void Endpoint_ClearSETUP(void)
			{
				UEINTX &= ~(1 << RXSTPI);
    13a2:	e8 ee       	ldi	r30, 0xE8	; 232
    13a4:	f0 e0       	ldi	r31, 0x00	; 0
    13a6:	80 81       	ld	r24, Z
    13a8:	87 7f       	andi	r24, 0xF7	; 247
    13aa:	80 83       	st	Z, r24
			 *  \ingroup Group_EndpointPacketManagement_AVR8
			 */
			static inline void Endpoint_StallTransaction(void) ATTR_ALWAYS_INLINE;
			static inline void Endpoint_StallTransaction(void)
			{
				UECONX |= (1 << STALLRQ);
    13ac:	eb ee       	ldi	r30, 0xEB	; 235
    13ae:	f0 e0       	ldi	r31, 0x00	; 0
    13b0:	80 81       	ld	r24, Z
    13b2:	80 62       	ori	r24, 0x20	; 32
    13b4:	80 83       	st	Z, r24
    13b6:	0b c0       	rjmp	.+22     	; 0x13ce <USB_Device_ProcessControlRequest+0x2c2>
{
	switch (USB_ControlRequest.bmRequestType & CONTROL_REQTYPE_RECIPIENT)
	{
		#if !defined(NO_DEVICE_REMOTE_WAKEUP)
		case REQREC_DEVICE:
			if ((uint8_t)USB_ControlRequest.wValue == FEATURE_SEL_DeviceRemoteWakeup)
    13b8:	90 91 78 04 	lds	r25, 0x0478
    13bc:	91 30       	cpi	r25, 0x01	; 1
    13be:	69 f7       	brne	.-38     	; 0x139a <USB_Device_ProcessControlRequest+0x28e>
    13c0:	09 cf       	rjmp	.-494    	; 0x11d4 <USB_Device_ProcessControlRequest+0xc8>

			break;
		#endif
		#if !defined(CONTROL_ONLY_DEVICE)
		case REQREC_ENDPOINT:
			if ((uint8_t)USB_ControlRequest.wValue == FEATURE_SEL_EndpointHalt)
    13c2:	80 91 78 04 	lds	r24, 0x0478
    13c6:	88 23       	and	r24, r24
    13c8:	09 f4       	brne	.+2      	; 0x13cc <USB_Device_ProcessControlRequest+0x2c0>
    13ca:	0b cf       	rjmp	.-490    	; 0x11e2 <USB_Device_ProcessControlRequest+0xd6>
    13cc:	32 cf       	rjmp	.-412    	; 0x1232 <USB_Device_ProcessControlRequest+0x126>
	if (Endpoint_IsSETUPReceived())
	{
		Endpoint_ClearSETUP();
		Endpoint_StallTransaction();
	}
}
    13ce:	aa 96       	adiw	r28, 0x2a	; 42
    13d0:	0f b6       	in	r0, 0x3f	; 63
    13d2:	f8 94       	cli
    13d4:	de bf       	out	0x3e, r29	; 62
    13d6:	0f be       	out	0x3f, r0	; 63
    13d8:	cd bf       	out	0x3d, r28	; 61
    13da:	df 91       	pop	r29
    13dc:	cf 91       	pop	r28
    13de:	1f 91       	pop	r17
    13e0:	0f 91       	pop	r16
    13e2:	08 95       	ret

000013e4 <USB_Event_Stub>:
#define  __INCLUDE_FROM_EVENTS_C
#define  __INCLUDE_FROM_USB_DRIVER
#include "Events.h"

void USB_Event_Stub(void)
{
    13e4:	08 95       	ret

000013e6 <USB_USBTask>:
#if defined(USB_CAN_BE_DEVICE) && !defined(DEVICE_STATE_AS_GPIOR)
volatile uint8_t     USB_DeviceState;
#endif

void USB_USBTask(void)
{
    13e6:	cf 93       	push	r28
}

#if defined(USB_CAN_BE_DEVICE)
static void USB_DeviceTask(void)
{
	if (USB_DeviceState == DEVICE_STATE_Unattached)
    13e8:	8e b3       	in	r24, 0x1e	; 30
    13ea:	88 23       	and	r24, r24
    13ec:	a1 f0       	breq	.+40     	; 0x1416 <USB_USBTask+0x30>
			 */
			static inline uint8_t Endpoint_GetCurrentEndpoint(void) ATTR_WARN_UNUSED_RESULT ATTR_ALWAYS_INLINE;
			static inline uint8_t Endpoint_GetCurrentEndpoint(void)
			{
				#if !defined(CONTROL_ONLY_DEVICE)
					return ((UENUM & ENDPOINT_EPNUM_MASK) | Endpoint_GetEndpointDirection());
    13ee:	c0 91 e9 00 	lds	r28, 0x00E9
    13f2:	cf 70       	andi	r28, 0x0F	; 15
			 *  \return The currently selected endpoint's direction, as a \c ENDPOINT_DIR_* mask.
			 */
			static inline uint8_t Endpoint_GetEndpointDirection(void) ATTR_WARN_UNUSED_RESULT ATTR_ALWAYS_INLINE;
			static inline uint8_t Endpoint_GetEndpointDirection(void)
			{
				return (UECFG0X & (1 << EPDIR)) ? ENDPOINT_DIR_IN : ENDPOINT_DIR_OUT;
    13f4:	80 91 ec 00 	lds	r24, 0x00EC
    13f8:	80 ff       	sbrs	r24, 0
    13fa:	02 c0       	rjmp	.+4      	; 0x1400 <USB_USBTask+0x1a>
    13fc:	80 e8       	ldi	r24, 0x80	; 128
    13fe:	01 c0       	rjmp	.+2      	; 0x1402 <USB_USBTask+0x1c>
    1400:	80 e0       	ldi	r24, 0x00	; 0
			 */
			static inline uint8_t Endpoint_GetCurrentEndpoint(void) ATTR_WARN_UNUSED_RESULT ATTR_ALWAYS_INLINE;
			static inline uint8_t Endpoint_GetCurrentEndpoint(void)
			{
				#if !defined(CONTROL_ONLY_DEVICE)
					return ((UENUM & ENDPOINT_EPNUM_MASK) | Endpoint_GetEndpointDirection());
    1402:	c8 2b       	or	r28, r24
			 */
			static inline void Endpoint_SelectEndpoint(const uint8_t Address) ATTR_ALWAYS_INLINE;
			static inline void Endpoint_SelectEndpoint(const uint8_t Address)
			{
				#if !defined(CONTROL_ONLY_DEVICE)
					UENUM = (Address & ENDPOINT_EPNUM_MASK);
    1404:	10 92 e9 00 	sts	0x00E9, r1
			 *  \return Boolean \c true if the selected endpoint has received a SETUP packet, \c false otherwise.
			 */
			static inline bool Endpoint_IsSETUPReceived(void) ATTR_WARN_UNUSED_RESULT ATTR_ALWAYS_INLINE;
			static inline bool Endpoint_IsSETUPReceived(void)
			{
				return ((UEINTX & (1 << RXSTPI)) ? true : false);
    1408:	80 91 e8 00 	lds	r24, 0x00E8

	uint8_t PrevEndpoint = Endpoint_GetCurrentEndpoint();

	Endpoint_SelectEndpoint(ENDPOINT_CONTROLEP);

	if (Endpoint_IsSETUPReceived())
    140c:	83 fd       	sbrc	r24, 3
	  USB_Device_ProcessControlRequest();
    140e:	7e de       	rcall	.-772    	; 0x110c <USB_Device_ProcessControlRequest>
			 */
			static inline void Endpoint_SelectEndpoint(const uint8_t Address) ATTR_ALWAYS_INLINE;
			static inline void Endpoint_SelectEndpoint(const uint8_t Address)
			{
				#if !defined(CONTROL_ONLY_DEVICE)
					UENUM = (Address & ENDPOINT_EPNUM_MASK);
    1410:	cf 70       	andi	r28, 0x0F	; 15
    1412:	c0 93 e9 00 	sts	0x00E9, r28
	#elif defined(USB_CAN_BE_HOST)
		USB_HostTask();
	#elif defined(USB_CAN_BE_DEVICE)
		USB_DeviceTask();
	#endif
}
    1416:	cf 91       	pop	r28
    1418:	08 95       	ret

0000141a <PosicionarServos>:
	if ((USB_DeviceState == DEVICE_STATE_Configured) && !(RingBuffer_IsFull(&USB_DadosParaEnviar_pt)))
	{
		RingBuffer_Insert(&USB_DadosParaEnviar_pt,byte);
		RingBuffer_Insert(&USB_DadosParaEnviar_pt, '\r');
		RingBuffer_Insert(&USB_DadosParaEnviar_pt, '\n');
		enviarUSB();
    141a:	88 e0       	ldi	r24, 0x08	; 8
    141c:	9c e0       	ldi	r25, 0x0C	; 12
    141e:	90 93 89 00 	sts	0x0089, r25
    1422:	80 93 88 00 	sts	0x0088, r24
    1426:	90 93 8b 00 	sts	0x008B, r25
    142a:	80 93 8a 00 	sts	0x008A, r24
    142e:	08 95       	ret

00001430 <ApagarLeds>:
    1430:	81 e0       	ldi	r24, 0x01	; 1
    1432:	90 e0       	ldi	r25, 0x00	; 0
    1434:	0e 94 e6 00 	call	0x1cc	; 0x1cc <apagaLed>
    1438:	82 e0       	ldi	r24, 0x02	; 2
    143a:	90 e0       	ldi	r25, 0x00	; 0
    143c:	0e 94 e6 00 	call	0x1cc	; 0x1cc <apagaLed>
    1440:	83 e0       	ldi	r24, 0x03	; 3
    1442:	90 e0       	ldi	r25, 0x00	; 0
    1444:	0c 94 e6 00 	jmp	0x1cc	; 0x1cc <apagaLed>
    1448:	08 95       	ret

0000144a <__vector_6>:
    144a:	1f 92       	push	r1
    144c:	0f 92       	push	r0
    144e:	0f b6       	in	r0, 0x3f	; 63
    1450:	0f 92       	push	r0
    1452:	11 24       	eor	r1, r1
    1454:	0b b6       	in	r0, 0x3b	; 59
    1456:	0f 92       	push	r0
    1458:	2f 93       	push	r18
    145a:	3f 93       	push	r19
    145c:	4f 93       	push	r20
    145e:	5f 93       	push	r21
    1460:	6f 93       	push	r22
    1462:	7f 93       	push	r23
    1464:	8f 93       	push	r24
    1466:	9f 93       	push	r25
    1468:	af 93       	push	r26
    146a:	bf 93       	push	r27
    146c:	ef 93       	push	r30
    146e:	ff 93       	push	r31
    1470:	65 e0       	ldi	r22, 0x05	; 5
    1472:	70 e0       	ldi	r23, 0x00	; 0
    1474:	8f ee       	ldi	r24, 0xEF	; 239
    1476:	46 d9       	rcall	.-3444   	; 0x704 <playNote>
    1478:	80 91 73 02 	lds	r24, 0x0273
    147c:	81 11       	cpse	r24, r1
    147e:	04 c0       	rjmp	.+8      	; 0x1488 <__vector_6+0x3e>
    1480:	81 e0       	ldi	r24, 0x01	; 1
    1482:	80 93 73 02 	sts	0x0273, r24
    1486:	02 c0       	rjmp	.+4      	; 0x148c <__vector_6+0x42>
    1488:	10 92 73 02 	sts	0x0273, r1
    148c:	65 9b       	sbis	0x0c, 5	; 12
    148e:	fe cf       	rjmp	.-4      	; 0x148c <__vector_6+0x42>
    1490:	8f e3       	ldi	r24, 0x3F	; 63
    1492:	9f e1       	ldi	r25, 0x1F	; 31
    1494:	01 97       	sbiw	r24, 0x01	; 1
    1496:	f1 f7       	brne	.-4      	; 0x1494 <__vector_6+0x4a>
    1498:	00 c0       	rjmp	.+0      	; 0x149a <__vector_6+0x50>
    149a:	00 00       	nop
    149c:	65 9b       	sbis	0x0c, 5	; 12
    149e:	fe cf       	rjmp	.-4      	; 0x149c <__vector_6+0x52>
    14a0:	ff 91       	pop	r31
    14a2:	ef 91       	pop	r30
    14a4:	bf 91       	pop	r27
    14a6:	af 91       	pop	r26
    14a8:	9f 91       	pop	r25
    14aa:	8f 91       	pop	r24
    14ac:	7f 91       	pop	r23
    14ae:	6f 91       	pop	r22
    14b0:	5f 91       	pop	r21
    14b2:	4f 91       	pop	r20
    14b4:	3f 91       	pop	r19
    14b6:	2f 91       	pop	r18
    14b8:	0f 90       	pop	r0
    14ba:	0b be       	out	0x3b, r0	; 59
    14bc:	0f 90       	pop	r0
    14be:	0f be       	out	0x3f, r0	; 63
    14c0:	0f 90       	pop	r0
    14c2:	1f 90       	pop	r1
    14c4:	18 95       	reti

000014c6 <iniciaInterrupt5>:
    14c6:	ed 9a       	sbi	0x1d, 5	; 29
    14c8:	08 95       	ret

000014ca <iniciaHardware>:
    14ca:	84 b7       	in	r24, 0x34	; 52
    14cc:	87 7f       	andi	r24, 0xF7	; 247
    14ce:	84 bf       	out	0x34, r24	; 52
    14d0:	88 e1       	ldi	r24, 0x18	; 24
    14d2:	0f b6       	in	r0, 0x3f	; 63
    14d4:	f8 94       	cli
    14d6:	80 93 60 00 	sts	0x0060, r24
    14da:	10 92 60 00 	sts	0x0060, r1
    14de:	0f be       	out	0x3f, r0	; 63
    14e0:	90 e0       	ldi	r25, 0x00	; 0
    14e2:	80 e8       	ldi	r24, 0x80	; 128
    14e4:	0f b6       	in	r0, 0x3f	; 63
    14e6:	f8 94       	cli
    14e8:	80 93 61 00 	sts	0x0061, r24
    14ec:	90 93 61 00 	sts	0x0061, r25
    14f0:	0f be       	out	0x3f, r0	; 63
    14f2:	9a d8       	rcall	.-3788   	; 0x628 <inicia_uMC>
    14f4:	eb dc       	rcall	.-1578   	; 0xecc <USB_Init>
    14f6:	e6 e6       	ldi	r30, 0x66	; 102
    14f8:	f2 e0       	ldi	r31, 0x02	; 2
    14fa:	2f b7       	in	r18, 0x3f	; 63
    14fc:	f8 94       	cli
    14fe:	86 ee       	ldi	r24, 0xE6	; 230
    1500:	91 e0       	ldi	r25, 0x01	; 1
    1502:	91 83       	std	Z+1, r25	; 0x01
    1504:	80 83       	st	Z, r24
    1506:	93 83       	std	Z+3, r25	; 0x03
    1508:	82 83       	std	Z+2, r24	; 0x02
    150a:	95 83       	std	Z+5, r25	; 0x05
    150c:	84 83       	std	Z+4, r24	; 0x04
    150e:	86 e6       	ldi	r24, 0x66	; 102
    1510:	92 e0       	ldi	r25, 0x02	; 2
    1512:	97 83       	std	Z+7, r25	; 0x07
    1514:	86 83       	std	Z+6, r24	; 0x06
    1516:	80 e8       	ldi	r24, 0x80	; 128
    1518:	90 e0       	ldi	r25, 0x00	; 0
    151a:	91 87       	std	Z+9, r25	; 0x09
    151c:	80 87       	std	Z+8, r24	; 0x08
    151e:	13 86       	std	Z+11, r1	; 0x0b
    1520:	12 86       	std	Z+10, r1	; 0x0a
    1522:	2f bf       	out	0x3f, r18	; 63
    1524:	ea ed       	ldi	r30, 0xDA	; 218
    1526:	f1 e0       	ldi	r31, 0x01	; 1
    1528:	2f b7       	in	r18, 0x3f	; 63
    152a:	f8 94       	cli
    152c:	8a e5       	ldi	r24, 0x5A	; 90
    152e:	91 e0       	ldi	r25, 0x01	; 1
    1530:	91 83       	std	Z+1, r25	; 0x01
    1532:	80 83       	st	Z, r24
    1534:	93 83       	std	Z+3, r25	; 0x03
    1536:	82 83       	std	Z+2, r24	; 0x02
    1538:	95 83       	std	Z+5, r25	; 0x05
    153a:	84 83       	std	Z+4, r24	; 0x04
    153c:	8a ed       	ldi	r24, 0xDA	; 218
    153e:	91 e0       	ldi	r25, 0x01	; 1
    1540:	97 83       	std	Z+7, r25	; 0x07
    1542:	86 83       	std	Z+6, r24	; 0x06
    1544:	80 e8       	ldi	r24, 0x80	; 128
    1546:	90 e0       	ldi	r25, 0x00	; 0
    1548:	91 87       	std	Z+9, r25	; 0x09
    154a:	80 87       	std	Z+8, r24	; 0x08
    154c:	13 86       	std	Z+11, r1	; 0x0b
    154e:	12 86       	std	Z+10, r1	; 0x0a
    1550:	2f bf       	out	0x3f, r18	; 63
    1552:	b9 df       	rcall	.-142    	; 0x14c6 <iniciaInterrupt5>
    1554:	78 94       	sei
    1556:	08 95       	ret

00001558 <receberUSB>:
    1558:	8f b7       	in	r24, 0x3f	; 63
    155a:	f8 94       	cli
    155c:	20 91 70 02 	lds	r18, 0x0270
    1560:	30 91 71 02 	lds	r19, 0x0271
    1564:	8f bf       	out	0x3f, r24	; 63
    1566:	80 91 6e 02 	lds	r24, 0x026E
    156a:	90 91 6f 02 	lds	r25, 0x026F
    156e:	28 17       	cp	r18, r24
    1570:	39 07       	cpc	r19, r25
    1572:	01 f1       	breq	.+64     	; 0x15b4 <receberUSB+0x5c>
    1574:	80 e0       	ldi	r24, 0x00	; 0
    1576:	91 e0       	ldi	r25, 0x01	; 1
    1578:	76 d9       	rcall	.-3348   	; 0x866 <CDC_Device_ReceiveByte>
    157a:	99 23       	and	r25, r25
    157c:	dc f0       	brlt	.+54     	; 0x15b4 <receberUSB+0x5c>
    157e:	e6 e6       	ldi	r30, 0x66	; 102
    1580:	f2 e0       	ldi	r31, 0x02	; 2
    1582:	a0 81       	ld	r26, Z
    1584:	b1 81       	ldd	r27, Z+1	; 0x01
    1586:	8c 93       	st	X, r24
    1588:	80 81       	ld	r24, Z
    158a:	91 81       	ldd	r25, Z+1	; 0x01
    158c:	01 96       	adiw	r24, 0x01	; 1
    158e:	91 83       	std	Z+1, r25	; 0x01
    1590:	80 83       	st	Z, r24
    1592:	26 81       	ldd	r18, Z+6	; 0x06
    1594:	37 81       	ldd	r19, Z+7	; 0x07
    1596:	82 17       	cp	r24, r18
    1598:	93 07       	cpc	r25, r19
    159a:	21 f4       	brne	.+8      	; 0x15a4 <receberUSB+0x4c>
    159c:	84 81       	ldd	r24, Z+4	; 0x04
    159e:	95 81       	ldd	r25, Z+5	; 0x05
    15a0:	91 83       	std	Z+1, r25	; 0x01
    15a2:	80 83       	st	Z, r24
    15a4:	2f b7       	in	r18, 0x3f	; 63
    15a6:	f8 94       	cli
    15a8:	82 85       	ldd	r24, Z+10	; 0x0a
    15aa:	93 85       	ldd	r25, Z+11	; 0x0b
    15ac:	01 96       	adiw	r24, 0x01	; 1
    15ae:	93 87       	std	Z+11, r25	; 0x0b
    15b0:	82 87       	std	Z+10, r24	; 0x0a
    15b2:	2f bf       	out	0x3f, r18	; 63
    15b4:	08 95       	ret

000015b6 <enviarUSB>:
    15b6:	ff 92       	push	r15
    15b8:	0f 93       	push	r16
    15ba:	1f 93       	push	r17
    15bc:	cf 93       	push	r28
    15be:	df 93       	push	r29
    15c0:	2f b7       	in	r18, 0x3f	; 63
    15c2:	f8 94       	cli
    15c4:	80 91 e4 01 	lds	r24, 0x01E4
    15c8:	90 91 e5 01 	lds	r25, 0x01E5
    15cc:	2f bf       	out	0x3f, r18	; 63
    15ce:	00 97       	sbiw	r24, 0x00	; 0
    15d0:	c9 f1       	breq	.+114    	; 0x1644 <enviarUSB+0x8e>
    15d2:	20 91 01 01 	lds	r18, 0x0101
    15d6:	2f 70       	andi	r18, 0x0F	; 15
    15d8:	20 93 e9 00 	sts	0x00E9, r18
    15dc:	20 91 e8 00 	lds	r18, 0x00E8
    15e0:	20 ff       	sbrs	r18, 0
    15e2:	30 c0       	rjmp	.+96     	; 0x1644 <enviarUSB+0x8e>
    15e4:	80 31       	cpi	r24, 0x10	; 16
    15e6:	91 05       	cpc	r25, r1
    15e8:	10 f0       	brcs	.+4      	; 0x15ee <enviarUSB+0x38>
    15ea:	8f e0       	ldi	r24, 0x0F	; 15
    15ec:	90 e0       	ldi	r25, 0x00	; 0
    15ee:	f8 2e       	mov	r15, r24
    15f0:	88 23       	and	r24, r24
    15f2:	41 f1       	breq	.+80     	; 0x1644 <enviarUSB+0x8e>
    15f4:	c0 e0       	ldi	r28, 0x00	; 0
    15f6:	d0 e0       	ldi	r29, 0x00	; 0
    15f8:	0a ed       	ldi	r16, 0xDA	; 218
    15fa:	11 e0       	ldi	r17, 0x01	; 1
    15fc:	e0 91 dc 01 	lds	r30, 0x01DC
    1600:	f0 91 dd 01 	lds	r31, 0x01DD
    1604:	60 81       	ld	r22, Z
    1606:	80 e0       	ldi	r24, 0x00	; 0
    1608:	91 e0       	ldi	r25, 0x01	; 1
    160a:	c2 d8       	rcall	.-3708   	; 0x790 <CDC_Device_SendByte>
    160c:	81 11       	cpse	r24, r1
    160e:	1a c0       	rjmp	.+52     	; 0x1644 <enviarUSB+0x8e>
    1610:	f8 01       	movw	r30, r16
    1612:	82 81       	ldd	r24, Z+2	; 0x02
    1614:	93 81       	ldd	r25, Z+3	; 0x03
    1616:	01 96       	adiw	r24, 0x01	; 1
    1618:	93 83       	std	Z+3, r25	; 0x03
    161a:	82 83       	std	Z+2, r24	; 0x02
    161c:	26 81       	ldd	r18, Z+6	; 0x06
    161e:	37 81       	ldd	r19, Z+7	; 0x07
    1620:	82 17       	cp	r24, r18
    1622:	93 07       	cpc	r25, r19
    1624:	21 f4       	brne	.+8      	; 0x162e <enviarUSB+0x78>
    1626:	84 81       	ldd	r24, Z+4	; 0x04
    1628:	95 81       	ldd	r25, Z+5	; 0x05
    162a:	93 83       	std	Z+3, r25	; 0x03
    162c:	82 83       	std	Z+2, r24	; 0x02
    162e:	2f b7       	in	r18, 0x3f	; 63
    1630:	f8 94       	cli
    1632:	82 85       	ldd	r24, Z+10	; 0x0a
    1634:	93 85       	ldd	r25, Z+11	; 0x0b
    1636:	01 97       	sbiw	r24, 0x01	; 1
    1638:	93 87       	std	Z+11, r25	; 0x0b
    163a:	82 87       	std	Z+10, r24	; 0x0a
    163c:	2f bf       	out	0x3f, r18	; 63
    163e:	21 96       	adiw	r28, 0x01	; 1
    1640:	fc 12       	cpse	r15, r28
    1642:	dc cf       	rjmp	.-72     	; 0x15fc <enviarUSB+0x46>
    1644:	df 91       	pop	r29
    1646:	cf 91       	pop	r28
    1648:	1f 91       	pop	r17
    164a:	0f 91       	pop	r16
    164c:	ff 90       	pop	r15
    164e:	08 95       	ret

00001650 <envieUSB_string_nl>:
    1650:	cf 93       	push	r28
    1652:	df 93       	push	r29
    1654:	2e b3       	in	r18, 0x1e	; 30
    1656:	24 30       	cpi	r18, 0x04	; 4
    1658:	09 f0       	breq	.+2      	; 0x165c <envieUSB_string_nl+0xc>
    165a:	6e c0       	rjmp	.+220    	; 0x1738 <envieUSB_string_nl+0xe8>
    165c:	2f b7       	in	r18, 0x3f	; 63
    165e:	f8 94       	cli
    1660:	40 91 e4 01 	lds	r20, 0x01E4
    1664:	50 91 e5 01 	lds	r21, 0x01E5
    1668:	2f bf       	out	0x3f, r18	; 63
    166a:	20 91 e2 01 	lds	r18, 0x01E2
    166e:	30 91 e3 01 	lds	r19, 0x01E3
    1672:	42 17       	cp	r20, r18
    1674:	53 07       	cpc	r21, r19
    1676:	09 f4       	brne	.+2      	; 0x167a <envieUSB_string_nl+0x2a>
    1678:	5f c0       	rjmp	.+190    	; 0x1738 <envieUSB_string_nl+0xe8>
    167a:	fc 01       	movw	r30, r24
    167c:	20 81       	ld	r18, Z
    167e:	22 23       	and	r18, r18
    1680:	11 f1       	breq	.+68     	; 0x16c6 <envieUSB_string_nl+0x76>
    1682:	dc 01       	movw	r26, r24
    1684:	11 96       	adiw	r26, 0x01	; 1
    1686:	4a ed       	ldi	r20, 0xDA	; 218
    1688:	51 e0       	ldi	r21, 0x01	; 1
    168a:	fa 01       	movw	r30, r20
    168c:	c0 81       	ld	r28, Z
    168e:	d1 81       	ldd	r29, Z+1	; 0x01
    1690:	28 83       	st	Y, r18
    1692:	20 81       	ld	r18, Z
    1694:	31 81       	ldd	r19, Z+1	; 0x01
    1696:	2f 5f       	subi	r18, 0xFF	; 255
    1698:	3f 4f       	sbci	r19, 0xFF	; 255
    169a:	31 83       	std	Z+1, r19	; 0x01
    169c:	20 83       	st	Z, r18
    169e:	86 81       	ldd	r24, Z+6	; 0x06
    16a0:	97 81       	ldd	r25, Z+7	; 0x07
    16a2:	28 17       	cp	r18, r24
    16a4:	39 07       	cpc	r19, r25
    16a6:	21 f4       	brne	.+8      	; 0x16b0 <envieUSB_string_nl+0x60>
    16a8:	84 81       	ldd	r24, Z+4	; 0x04
    16aa:	95 81       	ldd	r25, Z+5	; 0x05
    16ac:	91 83       	std	Z+1, r25	; 0x01
    16ae:	80 83       	st	Z, r24
    16b0:	2f b7       	in	r18, 0x3f	; 63
    16b2:	f8 94       	cli
    16b4:	82 85       	ldd	r24, Z+10	; 0x0a
    16b6:	93 85       	ldd	r25, Z+11	; 0x0b
    16b8:	01 96       	adiw	r24, 0x01	; 1
    16ba:	93 87       	std	Z+11, r25	; 0x0b
    16bc:	82 87       	std	Z+10, r24	; 0x0a
    16be:	2f bf       	out	0x3f, r18	; 63
    16c0:	2d 91       	ld	r18, X+
    16c2:	21 11       	cpse	r18, r1
    16c4:	e2 cf       	rjmp	.-60     	; 0x168a <envieUSB_string_nl+0x3a>
    16c6:	ea ed       	ldi	r30, 0xDA	; 218
    16c8:	f1 e0       	ldi	r31, 0x01	; 1
    16ca:	a0 81       	ld	r26, Z
    16cc:	b1 81       	ldd	r27, Z+1	; 0x01
    16ce:	8d e0       	ldi	r24, 0x0D	; 13
    16d0:	8c 93       	st	X, r24
    16d2:	80 81       	ld	r24, Z
    16d4:	91 81       	ldd	r25, Z+1	; 0x01
    16d6:	01 96       	adiw	r24, 0x01	; 1
    16d8:	91 83       	std	Z+1, r25	; 0x01
    16da:	80 83       	st	Z, r24
    16dc:	26 81       	ldd	r18, Z+6	; 0x06
    16de:	37 81       	ldd	r19, Z+7	; 0x07
    16e0:	82 17       	cp	r24, r18
    16e2:	93 07       	cpc	r25, r19
    16e4:	21 f4       	brne	.+8      	; 0x16ee <envieUSB_string_nl+0x9e>
    16e6:	84 81       	ldd	r24, Z+4	; 0x04
    16e8:	95 81       	ldd	r25, Z+5	; 0x05
    16ea:	91 83       	std	Z+1, r25	; 0x01
    16ec:	80 83       	st	Z, r24
    16ee:	2f b7       	in	r18, 0x3f	; 63
    16f0:	f8 94       	cli
    16f2:	82 85       	ldd	r24, Z+10	; 0x0a
    16f4:	93 85       	ldd	r25, Z+11	; 0x0b
    16f6:	01 96       	adiw	r24, 0x01	; 1
    16f8:	93 87       	std	Z+11, r25	; 0x0b
    16fa:	82 87       	std	Z+10, r24	; 0x0a
    16fc:	2f bf       	out	0x3f, r18	; 63
    16fe:	ea ed       	ldi	r30, 0xDA	; 218
    1700:	f1 e0       	ldi	r31, 0x01	; 1
    1702:	a0 81       	ld	r26, Z
    1704:	b1 81       	ldd	r27, Z+1	; 0x01
    1706:	8a e0       	ldi	r24, 0x0A	; 10
    1708:	8c 93       	st	X, r24
    170a:	80 81       	ld	r24, Z
    170c:	91 81       	ldd	r25, Z+1	; 0x01
    170e:	01 96       	adiw	r24, 0x01	; 1
    1710:	91 83       	std	Z+1, r25	; 0x01
    1712:	80 83       	st	Z, r24
    1714:	26 81       	ldd	r18, Z+6	; 0x06
    1716:	37 81       	ldd	r19, Z+7	; 0x07
    1718:	82 17       	cp	r24, r18
    171a:	93 07       	cpc	r25, r19
    171c:	21 f4       	brne	.+8      	; 0x1726 <envieUSB_string_nl+0xd6>
    171e:	84 81       	ldd	r24, Z+4	; 0x04
    1720:	95 81       	ldd	r25, Z+5	; 0x05
    1722:	91 83       	std	Z+1, r25	; 0x01
    1724:	80 83       	st	Z, r24
    1726:	2f b7       	in	r18, 0x3f	; 63
    1728:	f8 94       	cli
    172a:	82 85       	ldd	r24, Z+10	; 0x0a
    172c:	93 85       	ldd	r25, Z+11	; 0x0b
    172e:	01 96       	adiw	r24, 0x01	; 1
    1730:	93 87       	std	Z+11, r25	; 0x0b
    1732:	82 87       	std	Z+10, r24	; 0x0a
    1734:	2f bf       	out	0x3f, r18	; 63
    1736:	3f df       	rcall	.-386    	; 0x15b6 <enviarUSB>
    1738:	df 91       	pop	r29
    173a:	cf 91       	pop	r28
    173c:	08 95       	ret

0000173e <envieUSB_string>:
    173e:	cf 93       	push	r28
    1740:	df 93       	push	r29
    1742:	2e b3       	in	r18, 0x1e	; 30
    1744:	24 30       	cpi	r18, 0x04	; 4
    1746:	a9 f5       	brne	.+106    	; 0x17b2 <envieUSB_string+0x74>
    1748:	2f b7       	in	r18, 0x3f	; 63
    174a:	f8 94       	cli
    174c:	40 91 e4 01 	lds	r20, 0x01E4
    1750:	50 91 e5 01 	lds	r21, 0x01E5
    1754:	2f bf       	out	0x3f, r18	; 63
    1756:	20 91 e2 01 	lds	r18, 0x01E2
    175a:	30 91 e3 01 	lds	r19, 0x01E3
    175e:	42 17       	cp	r20, r18
    1760:	53 07       	cpc	r21, r19
    1762:	39 f1       	breq	.+78     	; 0x17b2 <envieUSB_string+0x74>
    1764:	fc 01       	movw	r30, r24
    1766:	20 81       	ld	r18, Z
    1768:	22 23       	and	r18, r18
    176a:	11 f1       	breq	.+68     	; 0x17b0 <envieUSB_string+0x72>
    176c:	dc 01       	movw	r26, r24
    176e:	11 96       	adiw	r26, 0x01	; 1
    1770:	4a ed       	ldi	r20, 0xDA	; 218
    1772:	51 e0       	ldi	r21, 0x01	; 1
    1774:	fa 01       	movw	r30, r20
    1776:	c0 81       	ld	r28, Z
    1778:	d1 81       	ldd	r29, Z+1	; 0x01
    177a:	28 83       	st	Y, r18
    177c:	20 81       	ld	r18, Z
    177e:	31 81       	ldd	r19, Z+1	; 0x01
    1780:	2f 5f       	subi	r18, 0xFF	; 255
    1782:	3f 4f       	sbci	r19, 0xFF	; 255
    1784:	31 83       	std	Z+1, r19	; 0x01
    1786:	20 83       	st	Z, r18
    1788:	86 81       	ldd	r24, Z+6	; 0x06
    178a:	97 81       	ldd	r25, Z+7	; 0x07
    178c:	28 17       	cp	r18, r24
    178e:	39 07       	cpc	r19, r25
    1790:	21 f4       	brne	.+8      	; 0x179a <envieUSB_string+0x5c>
    1792:	84 81       	ldd	r24, Z+4	; 0x04
    1794:	95 81       	ldd	r25, Z+5	; 0x05
    1796:	91 83       	std	Z+1, r25	; 0x01
    1798:	80 83       	st	Z, r24
    179a:	2f b7       	in	r18, 0x3f	; 63
    179c:	f8 94       	cli
    179e:	82 85       	ldd	r24, Z+10	; 0x0a
    17a0:	93 85       	ldd	r25, Z+11	; 0x0b
    17a2:	01 96       	adiw	r24, 0x01	; 1
    17a4:	93 87       	std	Z+11, r25	; 0x0b
    17a6:	82 87       	std	Z+10, r24	; 0x0a
    17a8:	2f bf       	out	0x3f, r18	; 63
    17aa:	2d 91       	ld	r18, X+
    17ac:	21 11       	cpse	r18, r1
    17ae:	e2 cf       	rjmp	.-60     	; 0x1774 <envieUSB_string+0x36>
    17b0:	02 df       	rcall	.-508    	; 0x15b6 <enviarUSB>
    17b2:	df 91       	pop	r29
    17b4:	cf 91       	pop	r28
    17b6:	08 95       	ret

000017b8 <envieUSB_Byte>:
    17b8:	9e b3       	in	r25, 0x1e	; 30
    17ba:	94 30       	cpi	r25, 0x04	; 4
    17bc:	09 f0       	breq	.+2      	; 0x17c0 <envieUSB_Byte+0x8>
    17be:	95 c0       	rjmp	.+298    	; 0x18ea <envieUSB_Byte+0x132>
    17c0:	9f b7       	in	r25, 0x3f	; 63
    17c2:	f8 94       	cli
    17c4:	40 91 e4 01 	lds	r20, 0x01E4
    17c8:	50 91 e5 01 	lds	r21, 0x01E5
    17cc:	9f bf       	out	0x3f, r25	; 63
    17ce:	20 91 e2 01 	lds	r18, 0x01E2
    17d2:	30 91 e3 01 	lds	r19, 0x01E3
    17d6:	42 17       	cp	r20, r18
    17d8:	53 07       	cpc	r21, r19
    17da:	09 f4       	brne	.+2      	; 0x17de <envieUSB_Byte+0x26>
    17dc:	86 c0       	rjmp	.+268    	; 0x18ea <envieUSB_Byte+0x132>
    17de:	ea ed       	ldi	r30, 0xDA	; 218
    17e0:	f1 e0       	ldi	r31, 0x01	; 1
    17e2:	a0 81       	ld	r26, Z
    17e4:	b1 81       	ldd	r27, Z+1	; 0x01
    17e6:	99 e2       	ldi	r25, 0x29	; 41
    17e8:	89 02       	muls	r24, r25
    17ea:	91 2d       	mov	r25, r1
    17ec:	11 24       	eor	r1, r1
    17ee:	95 95       	asr	r25
    17f0:	95 95       	asr	r25
    17f2:	95 95       	asr	r25
    17f4:	95 95       	asr	r25
    17f6:	87 fd       	sbrc	r24, 7
    17f8:	93 95       	inc	r25
    17fa:	90 5d       	subi	r25, 0xD0	; 208
    17fc:	9c 93       	st	X, r25
    17fe:	20 81       	ld	r18, Z
    1800:	31 81       	ldd	r19, Z+1	; 0x01
    1802:	2f 5f       	subi	r18, 0xFF	; 255
    1804:	3f 4f       	sbci	r19, 0xFF	; 255
    1806:	31 83       	std	Z+1, r19	; 0x01
    1808:	20 83       	st	Z, r18
    180a:	46 81       	ldd	r20, Z+6	; 0x06
    180c:	57 81       	ldd	r21, Z+7	; 0x07
    180e:	24 17       	cp	r18, r20
    1810:	35 07       	cpc	r19, r21
    1812:	21 f4       	brne	.+8      	; 0x181c <envieUSB_Byte+0x64>
    1814:	24 81       	ldd	r18, Z+4	; 0x04
    1816:	35 81       	ldd	r19, Z+5	; 0x05
    1818:	31 83       	std	Z+1, r19	; 0x01
    181a:	20 83       	st	Z, r18
    181c:	9f b7       	in	r25, 0x3f	; 63
    181e:	f8 94       	cli
    1820:	22 85       	ldd	r18, Z+10	; 0x0a
    1822:	33 85       	ldd	r19, Z+11	; 0x0b
    1824:	2f 5f       	subi	r18, 0xFF	; 255
    1826:	3f 4f       	sbci	r19, 0xFF	; 255
    1828:	33 87       	std	Z+11, r19	; 0x0b
    182a:	22 87       	std	Z+10, r18	; 0x0a
    182c:	9f bf       	out	0x3f, r25	; 63
    182e:	ea ed       	ldi	r30, 0xDA	; 218
    1830:	f1 e0       	ldi	r31, 0x01	; 1
    1832:	a0 81       	ld	r26, Z
    1834:	b1 81       	ldd	r27, Z+1	; 0x01
    1836:	27 e6       	ldi	r18, 0x67	; 103
    1838:	82 02       	muls	r24, r18
    183a:	91 2d       	mov	r25, r1
    183c:	11 24       	eor	r1, r1
    183e:	95 95       	asr	r25
    1840:	95 95       	asr	r25
    1842:	87 fd       	sbrc	r24, 7
    1844:	93 95       	inc	r25
    1846:	92 02       	muls	r25, r18
    1848:	21 2d       	mov	r18, r1
    184a:	11 24       	eor	r1, r1
    184c:	25 95       	asr	r18
    184e:	25 95       	asr	r18
    1850:	97 fd       	sbrc	r25, 7
    1852:	23 95       	inc	r18
    1854:	22 0f       	add	r18, r18
    1856:	32 2f       	mov	r19, r18
    1858:	33 0f       	add	r19, r19
    185a:	33 0f       	add	r19, r19
    185c:	23 0f       	add	r18, r19
    185e:	92 1b       	sub	r25, r18
    1860:	90 5d       	subi	r25, 0xD0	; 208
    1862:	9c 93       	st	X, r25
    1864:	20 81       	ld	r18, Z
    1866:	31 81       	ldd	r19, Z+1	; 0x01
    1868:	2f 5f       	subi	r18, 0xFF	; 255
    186a:	3f 4f       	sbci	r19, 0xFF	; 255
    186c:	31 83       	std	Z+1, r19	; 0x01
    186e:	20 83       	st	Z, r18
    1870:	46 81       	ldd	r20, Z+6	; 0x06
    1872:	57 81       	ldd	r21, Z+7	; 0x07
    1874:	24 17       	cp	r18, r20
    1876:	35 07       	cpc	r19, r21
    1878:	21 f4       	brne	.+8      	; 0x1882 <envieUSB_Byte+0xca>
    187a:	24 81       	ldd	r18, Z+4	; 0x04
    187c:	35 81       	ldd	r19, Z+5	; 0x05
    187e:	31 83       	std	Z+1, r19	; 0x01
    1880:	20 83       	st	Z, r18
    1882:	9f b7       	in	r25, 0x3f	; 63
    1884:	f8 94       	cli
    1886:	22 85       	ldd	r18, Z+10	; 0x0a
    1888:	33 85       	ldd	r19, Z+11	; 0x0b
    188a:	2f 5f       	subi	r18, 0xFF	; 255
    188c:	3f 4f       	sbci	r19, 0xFF	; 255
    188e:	33 87       	std	Z+11, r19	; 0x0b
    1890:	22 87       	std	Z+10, r18	; 0x0a
    1892:	9f bf       	out	0x3f, r25	; 63
    1894:	ea ed       	ldi	r30, 0xDA	; 218
    1896:	f1 e0       	ldi	r31, 0x01	; 1
    1898:	a0 81       	ld	r26, Z
    189a:	b1 81       	ldd	r27, Z+1	; 0x01
    189c:	97 e6       	ldi	r25, 0x67	; 103
    189e:	89 02       	muls	r24, r25
    18a0:	91 2d       	mov	r25, r1
    18a2:	11 24       	eor	r1, r1
    18a4:	95 95       	asr	r25
    18a6:	95 95       	asr	r25
    18a8:	87 fd       	sbrc	r24, 7
    18aa:	93 95       	inc	r25
    18ac:	99 0f       	add	r25, r25
    18ae:	29 2f       	mov	r18, r25
    18b0:	22 0f       	add	r18, r18
    18b2:	22 0f       	add	r18, r18
    18b4:	92 0f       	add	r25, r18
    18b6:	89 1b       	sub	r24, r25
    18b8:	80 5d       	subi	r24, 0xD0	; 208
    18ba:	8c 93       	st	X, r24
    18bc:	80 81       	ld	r24, Z
    18be:	91 81       	ldd	r25, Z+1	; 0x01
    18c0:	01 96       	adiw	r24, 0x01	; 1
    18c2:	91 83       	std	Z+1, r25	; 0x01
    18c4:	80 83       	st	Z, r24
    18c6:	26 81       	ldd	r18, Z+6	; 0x06
    18c8:	37 81       	ldd	r19, Z+7	; 0x07
    18ca:	82 17       	cp	r24, r18
    18cc:	93 07       	cpc	r25, r19
    18ce:	21 f4       	brne	.+8      	; 0x18d8 <envieUSB_Byte+0x120>
    18d0:	84 81       	ldd	r24, Z+4	; 0x04
    18d2:	95 81       	ldd	r25, Z+5	; 0x05
    18d4:	91 83       	std	Z+1, r25	; 0x01
    18d6:	80 83       	st	Z, r24
    18d8:	2f b7       	in	r18, 0x3f	; 63
    18da:	f8 94       	cli
    18dc:	82 85       	ldd	r24, Z+10	; 0x0a
    18de:	93 85       	ldd	r25, Z+11	; 0x0b
    18e0:	01 96       	adiw	r24, 0x01	; 1
    18e2:	93 87       	std	Z+11, r25	; 0x0b
    18e4:	82 87       	std	Z+10, r24	; 0x0a
    18e6:	2f bf       	out	0x3f, r18	; 63
    18e8:	66 ce       	rjmp	.-820    	; 0x15b6 <enviarUSB>
    18ea:	08 95       	ret

000018ec <envieUSB_Char>:
    18ec:	9e b3       	in	r25, 0x1e	; 30
    18ee:	94 30       	cpi	r25, 0x04	; 4
    18f0:	51 f5       	brne	.+84     	; 0x1946 <envieUSB_Char+0x5a>
    18f2:	9f b7       	in	r25, 0x3f	; 63
    18f4:	f8 94       	cli
    18f6:	40 91 e4 01 	lds	r20, 0x01E4
    18fa:	50 91 e5 01 	lds	r21, 0x01E5
    18fe:	9f bf       	out	0x3f, r25	; 63
    1900:	20 91 e2 01 	lds	r18, 0x01E2
    1904:	30 91 e3 01 	lds	r19, 0x01E3
    1908:	42 17       	cp	r20, r18
    190a:	53 07       	cpc	r21, r19
    190c:	e1 f0       	breq	.+56     	; 0x1946 <envieUSB_Char+0x5a>
    190e:	ea ed       	ldi	r30, 0xDA	; 218
    1910:	f1 e0       	ldi	r31, 0x01	; 1
    1912:	a0 81       	ld	r26, Z
    1914:	b1 81       	ldd	r27, Z+1	; 0x01
    1916:	8c 93       	st	X, r24
    1918:	80 81       	ld	r24, Z
    191a:	91 81       	ldd	r25, Z+1	; 0x01
    191c:	01 96       	adiw	r24, 0x01	; 1
    191e:	91 83       	std	Z+1, r25	; 0x01
    1920:	80 83       	st	Z, r24
    1922:	26 81       	ldd	r18, Z+6	; 0x06
    1924:	37 81       	ldd	r19, Z+7	; 0x07
    1926:	82 17       	cp	r24, r18
    1928:	93 07       	cpc	r25, r19
    192a:	21 f4       	brne	.+8      	; 0x1934 <envieUSB_Char+0x48>
    192c:	84 81       	ldd	r24, Z+4	; 0x04
    192e:	95 81       	ldd	r25, Z+5	; 0x05
    1930:	91 83       	std	Z+1, r25	; 0x01
    1932:	80 83       	st	Z, r24
    1934:	2f b7       	in	r18, 0x3f	; 63
    1936:	f8 94       	cli
    1938:	82 85       	ldd	r24, Z+10	; 0x0a
    193a:	93 85       	ldd	r25, Z+11	; 0x0b
    193c:	01 96       	adiw	r24, 0x01	; 1
    193e:	93 87       	std	Z+11, r25	; 0x0b
    1940:	82 87       	std	Z+10, r24	; 0x0a
    1942:	2f bf       	out	0x3f, r18	; 63
    1944:	38 ce       	rjmp	.-912    	; 0x15b6 <enviarUSB>
    1946:	08 95       	ret

00001948 <envieUSB_Word>:
	}
	
}

void envieUSB_Word(int16_t word) 
{
    1948:	0f 93       	push	r16
    194a:	1f 93       	push	r17
    194c:	cf 93       	push	r28
    194e:	df 93       	push	r29
    1950:	9c 01       	movw	r18, r24
	if ((USB_DeviceState == DEVICE_STATE_Configured) && !(RingBuffer_IsFull(&USB_DadosParaEnviar_pt)))
    1952:	8e b3       	in	r24, 0x1e	; 30
    1954:	84 30       	cpi	r24, 0x04	; 4
    1956:	09 f0       	breq	.+2      	; 0x195a <envieUSB_Word+0x12>
    1958:	de c0       	rjmp	.+444    	; 0x1b16 <envieUSB_Word+0x1ce>
			static inline uint_reg_t GetGlobalInterruptMask(void)
			{
				GCC_MEMORY_BARRIER();

				#if (ARCH == ARCH_AVR8)
				return SREG;
    195a:	8f b7       	in	r24, 0x3f	; 63
			static inline void GlobalInterruptDisable(void)
			{
				GCC_MEMORY_BARRIER();

				#if (ARCH == ARCH_AVR8)
				cli();
    195c:	f8 94       	cli
			uint16_t Count;

			uint_reg_t CurrentGlobalInt = GetGlobalInterruptMask();
			GlobalInterruptDisable();

			Count = Buffer->Count;
    195e:	40 91 e4 01 	lds	r20, 0x01E4
    1962:	50 91 e5 01 	lds	r21, 0x01E5
			static inline void SetGlobalInterruptMask(const uint_reg_t GlobalIntState)
			{
				GCC_MEMORY_BARRIER();

				#if (ARCH == ARCH_AVR8)
				SREG = GlobalIntState;
    1966:	8f bf       	out	0x3f, r24	; 63
    1968:	80 91 e2 01 	lds	r24, 0x01E2
    196c:	90 91 e3 01 	lds	r25, 0x01E3
    1970:	48 17       	cp	r20, r24
    1972:	59 07       	cpc	r21, r25
    1974:	09 f4       	brne	.+2      	; 0x1978 <envieUSB_Word+0x30>
    1976:	cf c0       	rjmp	.+414    	; 0x1b16 <envieUSB_Word+0x1ce>
	{
		if (word < 0) 
    1978:	33 23       	and	r19, r19
    197a:	fc f4       	brge	.+62     	; 0x19ba <envieUSB_Word+0x72>
		static inline void RingBuffer_Insert(RingBuffer_t* Buffer,
		                                     const uint8_t Data) ATTR_NON_NULL_PTR_ARG(1);
		static inline void RingBuffer_Insert(RingBuffer_t* Buffer,
		                                     const uint8_t Data)
		{
			GCC_FORCE_POINTER_ACCESS(Buffer);
    197c:	ea ed       	ldi	r30, 0xDA	; 218
    197e:	f1 e0       	ldi	r31, 0x01	; 1

			*Buffer->In = Data;
    1980:	a0 81       	ld	r26, Z
    1982:	b1 81       	ldd	r27, Z+1	; 0x01
    1984:	8d e2       	ldi	r24, 0x2D	; 45
    1986:	8c 93       	st	X, r24

			if (++Buffer->In == Buffer->End)
    1988:	80 81       	ld	r24, Z
    198a:	91 81       	ldd	r25, Z+1	; 0x01
    198c:	01 96       	adiw	r24, 0x01	; 1
    198e:	91 83       	std	Z+1, r25	; 0x01
    1990:	80 83       	st	Z, r24
    1992:	46 81       	ldd	r20, Z+6	; 0x06
    1994:	57 81       	ldd	r21, Z+7	; 0x07
    1996:	84 17       	cp	r24, r20
    1998:	95 07       	cpc	r25, r21
    199a:	21 f4       	brne	.+8      	; 0x19a4 <envieUSB_Word+0x5c>
			  Buffer->In = Buffer->Start;
    199c:	84 81       	ldd	r24, Z+4	; 0x04
    199e:	95 81       	ldd	r25, Z+5	; 0x05
    19a0:	91 83       	std	Z+1, r25	; 0x01
    19a2:	80 83       	st	Z, r24
			static inline uint_reg_t GetGlobalInterruptMask(void)
			{
				GCC_MEMORY_BARRIER();

				#if (ARCH == ARCH_AVR8)
				return SREG;
    19a4:	4f b7       	in	r20, 0x3f	; 63
			static inline void GlobalInterruptDisable(void)
			{
				GCC_MEMORY_BARRIER();

				#if (ARCH == ARCH_AVR8)
				cli();
    19a6:	f8 94       	cli

			uint_reg_t CurrentGlobalInt = GetGlobalInterruptMask();
			GlobalInterruptDisable();

			Buffer->Count++;
    19a8:	82 85       	ldd	r24, Z+10	; 0x0a
    19aa:	93 85       	ldd	r25, Z+11	; 0x0b
    19ac:	01 96       	adiw	r24, 0x01	; 1
    19ae:	93 87       	std	Z+11, r25	; 0x0b
    19b0:	82 87       	std	Z+10, r24	; 0x0a
			static inline void SetGlobalInterruptMask(const uint_reg_t GlobalIntState)
			{
				GCC_MEMORY_BARRIER();

				#if (ARCH == ARCH_AVR8)
				SREG = GlobalIntState;
    19b2:	4f bf       	out	0x3f, r20	; 63
			{
				RingBuffer_Insert(&USB_DadosParaEnviar_pt,'-');					    /* sinal de - */
				word *= -1;
    19b4:	31 95       	neg	r19
    19b6:	21 95       	neg	r18
    19b8:	31 09       	sbc	r19, r1
		static inline void RingBuffer_Insert(RingBuffer_t* Buffer,
		                                     const uint8_t Data) ATTR_NON_NULL_PTR_ARG(1);
		static inline void RingBuffer_Insert(RingBuffer_t* Buffer,
		                                     const uint8_t Data)
		{
			GCC_FORCE_POINTER_ACCESS(Buffer);
    19ba:	ea ed       	ldi	r30, 0xDA	; 218
    19bc:	f1 e0       	ldi	r31, 0x01	; 1

			*Buffer->In = Data;
    19be:	c0 81       	ld	r28, Z
    19c0:	d1 81       	ldd	r29, Z+1	; 0x01
			}
		RingBuffer_Insert(&USB_DadosParaEnviar_pt,'0' + (word / 10000));					/* Milhar */
    19c2:	c9 01       	movw	r24, r18
    19c4:	60 e1       	ldi	r22, 0x10	; 16
    19c6:	77 e2       	ldi	r23, 0x27	; 39
    19c8:	fa d5       	rcall	.+3060   	; 0x25be <__divmodhi4>
    19ca:	60 5d       	subi	r22, 0xD0	; 208
    19cc:	68 83       	st	Y, r22

			if (++Buffer->In == Buffer->End)
    19ce:	80 81       	ld	r24, Z
    19d0:	91 81       	ldd	r25, Z+1	; 0x01
    19d2:	01 96       	adiw	r24, 0x01	; 1
    19d4:	91 83       	std	Z+1, r25	; 0x01
    19d6:	80 83       	st	Z, r24
    19d8:	46 81       	ldd	r20, Z+6	; 0x06
    19da:	57 81       	ldd	r21, Z+7	; 0x07
    19dc:	84 17       	cp	r24, r20
    19de:	95 07       	cpc	r25, r21
    19e0:	21 f4       	brne	.+8      	; 0x19ea <envieUSB_Word+0xa2>
			  Buffer->In = Buffer->Start;
    19e2:	84 81       	ldd	r24, Z+4	; 0x04
    19e4:	95 81       	ldd	r25, Z+5	; 0x05
    19e6:	91 83       	std	Z+1, r25	; 0x01
    19e8:	80 83       	st	Z, r24
			static inline uint_reg_t GetGlobalInterruptMask(void)
			{
				GCC_MEMORY_BARRIER();

				#if (ARCH == ARCH_AVR8)
				return SREG;
    19ea:	4f b7       	in	r20, 0x3f	; 63
			static inline void GlobalInterruptDisable(void)
			{
				GCC_MEMORY_BARRIER();

				#if (ARCH == ARCH_AVR8)
				cli();
    19ec:	f8 94       	cli

			uint_reg_t CurrentGlobalInt = GetGlobalInterruptMask();
			GlobalInterruptDisable();

			Buffer->Count++;
    19ee:	82 85       	ldd	r24, Z+10	; 0x0a
    19f0:	93 85       	ldd	r25, Z+11	; 0x0b
    19f2:	01 96       	adiw	r24, 0x01	; 1
    19f4:	93 87       	std	Z+11, r25	; 0x0b
    19f6:	82 87       	std	Z+10, r24	; 0x0a
			static inline void SetGlobalInterruptMask(const uint_reg_t GlobalIntState)
			{
				GCC_MEMORY_BARRIER();

				#if (ARCH == ARCH_AVR8)
				SREG = GlobalIntState;
    19f8:	4f bf       	out	0x3f, r20	; 63
		static inline void RingBuffer_Insert(RingBuffer_t* Buffer,
		                                     const uint8_t Data) ATTR_NON_NULL_PTR_ARG(1);
		static inline void RingBuffer_Insert(RingBuffer_t* Buffer,
		                                     const uint8_t Data)
		{
			GCC_FORCE_POINTER_ACCESS(Buffer);
    19fa:	ea ed       	ldi	r30, 0xDA	; 218
    19fc:	f1 e0       	ldi	r31, 0x01	; 1

			*Buffer->In = Data;
    19fe:	c0 81       	ld	r28, Z
    1a00:	d1 81       	ldd	r29, Z+1	; 0x01
		RingBuffer_Insert(&USB_DadosParaEnviar_pt,'0' + ((word / 1000) % 10));              /* centena */
    1a02:	c9 01       	movw	r24, r18
    1a04:	68 ee       	ldi	r22, 0xE8	; 232
    1a06:	73 e0       	ldi	r23, 0x03	; 3
    1a08:	da d5       	rcall	.+2996   	; 0x25be <__divmodhi4>
    1a0a:	cb 01       	movw	r24, r22
    1a0c:	6a e0       	ldi	r22, 0x0A	; 10
    1a0e:	70 e0       	ldi	r23, 0x00	; 0
    1a10:	d6 d5       	rcall	.+2988   	; 0x25be <__divmodhi4>
    1a12:	80 5d       	subi	r24, 0xD0	; 208
    1a14:	88 83       	st	Y, r24

			if (++Buffer->In == Buffer->End)
    1a16:	80 81       	ld	r24, Z
    1a18:	91 81       	ldd	r25, Z+1	; 0x01
    1a1a:	01 96       	adiw	r24, 0x01	; 1
    1a1c:	91 83       	std	Z+1, r25	; 0x01
    1a1e:	80 83       	st	Z, r24
    1a20:	46 81       	ldd	r20, Z+6	; 0x06
    1a22:	57 81       	ldd	r21, Z+7	; 0x07
    1a24:	84 17       	cp	r24, r20
    1a26:	95 07       	cpc	r25, r21
    1a28:	21 f4       	brne	.+8      	; 0x1a32 <envieUSB_Word+0xea>
			  Buffer->In = Buffer->Start;
    1a2a:	84 81       	ldd	r24, Z+4	; 0x04
    1a2c:	95 81       	ldd	r25, Z+5	; 0x05
    1a2e:	91 83       	std	Z+1, r25	; 0x01
    1a30:	80 83       	st	Z, r24
			static inline uint_reg_t GetGlobalInterruptMask(void)
			{
				GCC_MEMORY_BARRIER();

				#if (ARCH == ARCH_AVR8)
				return SREG;
    1a32:	4f b7       	in	r20, 0x3f	; 63
			static inline void GlobalInterruptDisable(void)
			{
				GCC_MEMORY_BARRIER();

				#if (ARCH == ARCH_AVR8)
				cli();
    1a34:	f8 94       	cli

			uint_reg_t CurrentGlobalInt = GetGlobalInterruptMask();
			GlobalInterruptDisable();

			Buffer->Count++;
    1a36:	82 85       	ldd	r24, Z+10	; 0x0a
    1a38:	93 85       	ldd	r25, Z+11	; 0x0b
    1a3a:	01 96       	adiw	r24, 0x01	; 1
    1a3c:	93 87       	std	Z+11, r25	; 0x0b
    1a3e:	82 87       	std	Z+10, r24	; 0x0a
			static inline void SetGlobalInterruptMask(const uint_reg_t GlobalIntState)
			{
				GCC_MEMORY_BARRIER();

				#if (ARCH == ARCH_AVR8)
				SREG = GlobalIntState;
    1a40:	4f bf       	out	0x3f, r20	; 63
		static inline void RingBuffer_Insert(RingBuffer_t* Buffer,
		                                     const uint8_t Data) ATTR_NON_NULL_PTR_ARG(1);
		static inline void RingBuffer_Insert(RingBuffer_t* Buffer,
		                                     const uint8_t Data)
		{
			GCC_FORCE_POINTER_ACCESS(Buffer);
    1a42:	ea ed       	ldi	r30, 0xDA	; 218
    1a44:	f1 e0       	ldi	r31, 0x01	; 1

			*Buffer->In = Data;
    1a46:	c0 81       	ld	r28, Z
    1a48:	d1 81       	ldd	r29, Z+1	; 0x01
		RingBuffer_Insert(&USB_DadosParaEnviar_pt,'0' + ((word / 100) % 10));               /* desena */
    1a4a:	c9 01       	movw	r24, r18
    1a4c:	64 e6       	ldi	r22, 0x64	; 100
    1a4e:	70 e0       	ldi	r23, 0x00	; 0
    1a50:	b6 d5       	rcall	.+2924   	; 0x25be <__divmodhi4>
    1a52:	cb 01       	movw	r24, r22
    1a54:	6a e0       	ldi	r22, 0x0A	; 10
    1a56:	70 e0       	ldi	r23, 0x00	; 0
    1a58:	b2 d5       	rcall	.+2916   	; 0x25be <__divmodhi4>
    1a5a:	80 5d       	subi	r24, 0xD0	; 208
    1a5c:	88 83       	st	Y, r24

			if (++Buffer->In == Buffer->End)
    1a5e:	80 81       	ld	r24, Z
    1a60:	91 81       	ldd	r25, Z+1	; 0x01
    1a62:	01 96       	adiw	r24, 0x01	; 1
    1a64:	91 83       	std	Z+1, r25	; 0x01
    1a66:	80 83       	st	Z, r24
    1a68:	46 81       	ldd	r20, Z+6	; 0x06
    1a6a:	57 81       	ldd	r21, Z+7	; 0x07
    1a6c:	84 17       	cp	r24, r20
    1a6e:	95 07       	cpc	r25, r21
    1a70:	21 f4       	brne	.+8      	; 0x1a7a <envieUSB_Word+0x132>
			  Buffer->In = Buffer->Start;
    1a72:	84 81       	ldd	r24, Z+4	; 0x04
    1a74:	95 81       	ldd	r25, Z+5	; 0x05
    1a76:	91 83       	std	Z+1, r25	; 0x01
    1a78:	80 83       	st	Z, r24
			static inline uint_reg_t GetGlobalInterruptMask(void)
			{
				GCC_MEMORY_BARRIER();

				#if (ARCH == ARCH_AVR8)
				return SREG;
    1a7a:	4f b7       	in	r20, 0x3f	; 63
			static inline void GlobalInterruptDisable(void)
			{
				GCC_MEMORY_BARRIER();

				#if (ARCH == ARCH_AVR8)
				cli();
    1a7c:	f8 94       	cli

			uint_reg_t CurrentGlobalInt = GetGlobalInterruptMask();
			GlobalInterruptDisable();

			Buffer->Count++;
    1a7e:	82 85       	ldd	r24, Z+10	; 0x0a
    1a80:	93 85       	ldd	r25, Z+11	; 0x0b
    1a82:	01 96       	adiw	r24, 0x01	; 1
    1a84:	93 87       	std	Z+11, r25	; 0x0b
    1a86:	82 87       	std	Z+10, r24	; 0x0a
			static inline void SetGlobalInterruptMask(const uint_reg_t GlobalIntState)
			{
				GCC_MEMORY_BARRIER();

				#if (ARCH == ARCH_AVR8)
				SREG = GlobalIntState;
    1a88:	4f bf       	out	0x3f, r20	; 63
		static inline void RingBuffer_Insert(RingBuffer_t* Buffer,
		                                     const uint8_t Data) ATTR_NON_NULL_PTR_ARG(1);
		static inline void RingBuffer_Insert(RingBuffer_t* Buffer,
		                                     const uint8_t Data)
		{
			GCC_FORCE_POINTER_ACCESS(Buffer);
    1a8a:	ea ed       	ldi	r30, 0xDA	; 218
    1a8c:	f1 e0       	ldi	r31, 0x01	; 1

			*Buffer->In = Data;
    1a8e:	00 81       	ld	r16, Z
    1a90:	11 81       	ldd	r17, Z+1	; 0x01
		RingBuffer_Insert(&USB_DadosParaEnviar_pt,'0' + ((word / 10) % 10));                /* Tens */
    1a92:	ca e0       	ldi	r28, 0x0A	; 10
    1a94:	d0 e0       	ldi	r29, 0x00	; 0
    1a96:	c9 01       	movw	r24, r18
    1a98:	be 01       	movw	r22, r28
    1a9a:	91 d5       	rcall	.+2850   	; 0x25be <__divmodhi4>
    1a9c:	cb 01       	movw	r24, r22
    1a9e:	be 01       	movw	r22, r28
    1aa0:	8e d5       	rcall	.+2844   	; 0x25be <__divmodhi4>
    1aa2:	80 5d       	subi	r24, 0xD0	; 208
    1aa4:	d8 01       	movw	r26, r16
    1aa6:	8c 93       	st	X, r24

			if (++Buffer->In == Buffer->End)
    1aa8:	80 81       	ld	r24, Z
    1aaa:	91 81       	ldd	r25, Z+1	; 0x01
    1aac:	01 96       	adiw	r24, 0x01	; 1
    1aae:	91 83       	std	Z+1, r25	; 0x01
    1ab0:	80 83       	st	Z, r24
    1ab2:	46 81       	ldd	r20, Z+6	; 0x06
    1ab4:	57 81       	ldd	r21, Z+7	; 0x07
    1ab6:	84 17       	cp	r24, r20
    1ab8:	95 07       	cpc	r25, r21
    1aba:	21 f4       	brne	.+8      	; 0x1ac4 <envieUSB_Word+0x17c>
			  Buffer->In = Buffer->Start;
    1abc:	84 81       	ldd	r24, Z+4	; 0x04
    1abe:	95 81       	ldd	r25, Z+5	; 0x05
    1ac0:	91 83       	std	Z+1, r25	; 0x01
    1ac2:	80 83       	st	Z, r24
			static inline uint_reg_t GetGlobalInterruptMask(void)
			{
				GCC_MEMORY_BARRIER();

				#if (ARCH == ARCH_AVR8)
				return SREG;
    1ac4:	4f b7       	in	r20, 0x3f	; 63
			static inline void GlobalInterruptDisable(void)
			{
				GCC_MEMORY_BARRIER();

				#if (ARCH == ARCH_AVR8)
				cli();
    1ac6:	f8 94       	cli

			uint_reg_t CurrentGlobalInt = GetGlobalInterruptMask();
			GlobalInterruptDisable();

			Buffer->Count++;
    1ac8:	82 85       	ldd	r24, Z+10	; 0x0a
    1aca:	93 85       	ldd	r25, Z+11	; 0x0b
    1acc:	01 96       	adiw	r24, 0x01	; 1
    1ace:	93 87       	std	Z+11, r25	; 0x0b
    1ad0:	82 87       	std	Z+10, r24	; 0x0a
			static inline void SetGlobalInterruptMask(const uint_reg_t GlobalIntState)
			{
				GCC_MEMORY_BARRIER();

				#if (ARCH == ARCH_AVR8)
				SREG = GlobalIntState;
    1ad2:	4f bf       	out	0x3f, r20	; 63
		static inline void RingBuffer_Insert(RingBuffer_t* Buffer,
		                                     const uint8_t Data) ATTR_NON_NULL_PTR_ARG(1);
		static inline void RingBuffer_Insert(RingBuffer_t* Buffer,
		                                     const uint8_t Data)
		{
			GCC_FORCE_POINTER_ACCESS(Buffer);
    1ad4:	ea ed       	ldi	r30, 0xDA	; 218
    1ad6:	f1 e0       	ldi	r31, 0x01	; 1

			*Buffer->In = Data;
    1ad8:	c0 81       	ld	r28, Z
    1ada:	d1 81       	ldd	r29, Z+1	; 0x01
		RingBuffer_Insert(&USB_DadosParaEnviar_pt,'0' + (word % 10));                       /* unidade */
    1adc:	c9 01       	movw	r24, r18
    1ade:	6a e0       	ldi	r22, 0x0A	; 10
    1ae0:	70 e0       	ldi	r23, 0x00	; 0
    1ae2:	6d d5       	rcall	.+2778   	; 0x25be <__divmodhi4>
    1ae4:	80 5d       	subi	r24, 0xD0	; 208
    1ae6:	88 83       	st	Y, r24

			if (++Buffer->In == Buffer->End)
    1ae8:	80 81       	ld	r24, Z
    1aea:	91 81       	ldd	r25, Z+1	; 0x01
    1aec:	01 96       	adiw	r24, 0x01	; 1
    1aee:	91 83       	std	Z+1, r25	; 0x01
    1af0:	80 83       	st	Z, r24
    1af2:	26 81       	ldd	r18, Z+6	; 0x06
    1af4:	37 81       	ldd	r19, Z+7	; 0x07
    1af6:	82 17       	cp	r24, r18
    1af8:	93 07       	cpc	r25, r19
    1afa:	21 f4       	brne	.+8      	; 0x1b04 <envieUSB_Word+0x1bc>
			  Buffer->In = Buffer->Start;
    1afc:	84 81       	ldd	r24, Z+4	; 0x04
    1afe:	95 81       	ldd	r25, Z+5	; 0x05
    1b00:	91 83       	std	Z+1, r25	; 0x01
    1b02:	80 83       	st	Z, r24
			static inline uint_reg_t GetGlobalInterruptMask(void)
			{
				GCC_MEMORY_BARRIER();

				#if (ARCH == ARCH_AVR8)
				return SREG;
    1b04:	2f b7       	in	r18, 0x3f	; 63
			static inline void GlobalInterruptDisable(void)
			{
				GCC_MEMORY_BARRIER();

				#if (ARCH == ARCH_AVR8)
				cli();
    1b06:	f8 94       	cli

			uint_reg_t CurrentGlobalInt = GetGlobalInterruptMask();
			GlobalInterruptDisable();

			Buffer->Count++;
    1b08:	82 85       	ldd	r24, Z+10	; 0x0a
    1b0a:	93 85       	ldd	r25, Z+11	; 0x0b
    1b0c:	01 96       	adiw	r24, 0x01	; 1
    1b0e:	93 87       	std	Z+11, r25	; 0x0b
    1b10:	82 87       	std	Z+10, r24	; 0x0a
			static inline void SetGlobalInterruptMask(const uint_reg_t GlobalIntState)
			{
				GCC_MEMORY_BARRIER();

				#if (ARCH == ARCH_AVR8)
				SREG = GlobalIntState;
    1b12:	2f bf       	out	0x3f, r18	; 63
		enviarUSB();
    1b14:	50 dd       	rcall	.-1376   	; 0x15b6 <enviarUSB>
	}
}
    1b16:	df 91       	pop	r29
    1b18:	cf 91       	pop	r28
    1b1a:	1f 91       	pop	r17
    1b1c:	0f 91       	pop	r16
    1b1e:	08 95       	ret

00001b20 <mostraMemoria>:
*/
  


void mostraMemoria()
{
    1b20:	ff 92       	push	r15
    1b22:	0f 93       	push	r16
    1b24:	1f 93       	push	r17
    1b26:	cf 93       	push	r28
    1b28:	df 93       	push	r29
    1b2a:	00 d0       	rcall	.+0      	; 0x1b2c <mostraMemoria+0xc>
    1b2c:	1f 92       	push	r1
    1b2e:	cd b7       	in	r28, 0x3d	; 61
    1b30:	de b7       	in	r29, 0x3e	; 62
	char stringAux[]= "-x";
    1b32:	8d e2       	ldi	r24, 0x2D	; 45
    1b34:	98 e7       	ldi	r25, 0x78	; 120
    1b36:	a0 e0       	ldi	r26, 0x00	; 0
    1b38:	89 83       	std	Y+1, r24	; 0x01
    1b3a:	9a 83       	std	Y+2, r25	; 0x02
    1b3c:	ab 83       	std	Y+3, r26	; 0x03
	stringAux[1]=0;
    1b3e:	1a 82       	std	Y+2, r1	; 0x02
    1b40:	04 e7       	ldi	r16, 0x74	; 116
    1b42:	12 e0       	ldi	r17, 0x02	; 2
	
	for (int8_t i=0;i<35;i++)
    1b44:	f1 2c       	mov	r15, r1
	{	
		envieUSB_Byte(i);
    1b46:	8f 2d       	mov	r24, r15
    1b48:	37 de       	rcall	.-914    	; 0x17b8 <envieUSB_Byte>
		envieUSB_string(stringAux);
    1b4a:	ce 01       	movw	r24, r28
    1b4c:	01 96       	adiw	r24, 0x01	; 1
    1b4e:	f7 dd       	rcall	.-1042   	; 0x173e <envieUSB_string>
		envieUSB_Word(registradores[i]); 
    1b50:	f8 01       	movw	r30, r16
    1b52:	81 91       	ld	r24, Z+
    1b54:	91 91       	ld	r25, Z+
    1b56:	8f 01       	movw	r16, r30
    1b58:	f7 de       	rcall	.-530    	; 0x1948 <envieUSB_Word>
		envieUSB_string_nl(stringAux);
    1b5a:	ce 01       	movw	r24, r28
    1b5c:	01 96       	adiw	r24, 0x01	; 1
    1b5e:	78 dd       	rcall	.-1296   	; 0x1650 <envieUSB_string_nl>
void mostraMemoria()
{
	char stringAux[]= "-x";
	stringAux[1]=0;
	
	for (int8_t i=0;i<35;i++)
    1b60:	f3 94       	inc	r15
    1b62:	f3 e2       	ldi	r31, 0x23	; 35
    1b64:	ff 12       	cpse	r15, r31
    1b66:	ef cf       	rjmp	.-34     	; 0x1b46 <mostraMemoria+0x26>
		envieUSB_string(stringAux);
		envieUSB_Word(registradores[i]); 
		envieUSB_string_nl(stringAux);
	}
	
}
    1b68:	0f 90       	pop	r0
    1b6a:	0f 90       	pop	r0
    1b6c:	0f 90       	pop	r0
    1b6e:	df 91       	pop	r29
    1b70:	cf 91       	pop	r28
    1b72:	1f 91       	pop	r17
    1b74:	0f 91       	pop	r16
    1b76:	ff 90       	pop	r15
    1b78:	08 95       	ret

00001b7a <mc_executaPrograma>:
	
}

//  Rotina que gerencia o modo de execução
void mc_executaPrograma()
{
    1b7a:	0f 93       	push	r16
    1b7c:	1f 93       	push	r17
    1b7e:	cf 93       	push	r28
    1b80:	df 93       	push	r29
    1b82:	cd b7       	in	r28, 0x3d	; 61
    1b84:	de b7       	in	r29, 0x3e	; 62
    1b86:	2c 97       	sbiw	r28, 0x0c	; 12
    1b88:	0f b6       	in	r0, 0x3f	; 63
    1b8a:	f8 94       	cli
    1b8c:	de bf       	out	0x3e, r29	; 62
    1b8e:	0f be       	out	0x3f, r0	; 63
    1b90:	cd bf       	out	0x3d, r28	; 61
	char stringAux[]= "Executa...x";
    1b92:	8c e0       	ldi	r24, 0x0C	; 12
    1b94:	eb e1       	ldi	r30, 0x1B	; 27
    1b96:	f1 e0       	ldi	r31, 0x01	; 1
    1b98:	de 01       	movw	r26, r28
    1b9a:	11 96       	adiw	r26, 0x01	; 1
    1b9c:	01 90       	ld	r0, Z+
    1b9e:	0d 92       	st	X+, r0
    1ba0:	8a 95       	dec	r24
    1ba2:	e1 f7       	brne	.-8      	; 0x1b9c <mc_executaPrograma+0x22>
	stringAux[10]=0;
    1ba4:	1b 86       	std	Y+11, r1	; 0x0b
	
	L2R_off();
    1ba6:	5d 98       	cbi	0x0b, 5	; 11
	
	envieUSB_string_nl(stringAux);
    1ba8:	ce 01       	movw	r24, r28
    1baa:	01 96       	adiw	r24, 0x01	; 1
    1bac:	51 dd       	rcall	.-1374   	; 0x1650 <envieUSB_string_nl>
	while (uMC_Modo == MODO_EXECUTAR)
    1bae:	80 91 73 02 	lds	r24, 0x0273
    1bb2:	81 30       	cpi	r24, 0x01	; 1
    1bb4:	49 f5       	brne	.+82     	; 0x1c08 <mc_executaPrograma+0x8e>
		//frente(1000);
		
		mostraMemoria();
		//*****************************************
		//   NÃO REMOVER DO LOOP 
		testaBateria();    // Verifica deve emitir o aviso de bateria baixa
    1bb6:	00 e9       	ldi	r16, 0x90	; 144
    1bb8:	12 e0       	ldi	r17, 0x02	; 2
	L2R_off();
	
	envieUSB_string_nl(stringAux);
	while (uMC_Modo == MODO_EXECUTAR)
	{
		L2G_on();
    1bba:	74 9a       	sbi	0x0e, 4	; 14
		envieUSB_string_nl(stringAux);
    1bbc:	ce 01       	movw	r24, r28
    1bbe:	01 96       	adiw	r24, 0x01	; 1
    1bc0:	47 dd       	rcall	.-1394   	; 0x1650 <envieUSB_string_nl>
	    lerEntradasuMC();
    1bc2:	0e 94 a7 02 	call	0x54e	; 0x54e <lerEntradasuMC>
		trataID();
    1bc6:	0e 94 90 01 	call	0x320	; 0x320 <trataID>
		md_frente;
    1bca:	5f 98       	cbi	0x0b, 7	; 11
    1bcc:	44 9a       	sbi	0x08, 4	; 8
		me_frente;
    1bce:	5e 98       	cbi	0x0b, 6	; 11
    1bd0:	5c 9a       	sbi	0x0b, 4	; 11
		//frente(1000);
		
		mostraMemoria();
    1bd2:	a6 df       	rcall	.-180    	; 0x1b20 <mostraMemoria>
		//*****************************************
		//   NÃO REMOVER DO LOOP 
		testaBateria();    // Verifica deve emitir o aviso de bateria baixa
    1bd4:	f8 01       	movw	r30, r16
    1bd6:	80 81       	ld	r24, Z
    1bd8:	91 81       	ldd	r25, Z+1	; 0x01
    1bda:	4e 97       	sbiw	r24, 0x1e	; 30
    1bdc:	5c f4       	brge	.+22     	; 0x1bf4 <mc_executaPrograma+0x7a>
    1bde:	5d 98       	cbi	0x0b, 5	; 11
    1be0:	74 98       	cbi	0x0e, 4	; 14
    1be2:	ff ef       	ldi	r31, 0xFF	; 255
    1be4:	25 ea       	ldi	r18, 0xA5	; 165
    1be6:	8e e0       	ldi	r24, 0x0E	; 14
    1be8:	f1 50       	subi	r31, 0x01	; 1
    1bea:	20 40       	sbci	r18, 0x00	; 0
    1bec:	80 40       	sbci	r24, 0x00	; 0
    1bee:	e1 f7       	brne	.-8      	; 0x1be8 <mc_executaPrograma+0x6e>
    1bf0:	00 c0       	rjmp	.+0      	; 0x1bf2 <mc_executaPrograma+0x78>
    1bf2:	00 00       	nop

		receberUSB();
    1bf4:	b1 dc       	rcall	.-1694   	; 0x1558 <receberUSB>

		CDC_Device_USBTask(&VirtualSerial_CDC_Interface);
    1bf6:	80 e0       	ldi	r24, 0x00	; 0
    1bf8:	91 e0       	ldi	r25, 0x01	; 1
    1bfa:	0e 94 1e 04 	call	0x83c	; 0x83c <CDC_Device_USBTask>
		USB_USBTask();
    1bfe:	f3 db       	rcall	.-2074   	; 0x13e6 <USB_USBTask>
	stringAux[10]=0;
	
	L2R_off();
	
	envieUSB_string_nl(stringAux);
	while (uMC_Modo == MODO_EXECUTAR)
    1c00:	80 91 73 02 	lds	r24, 0x0273
    1c04:	81 30       	cpi	r24, 0x01	; 1
    1c06:	c9 f2       	breq	.-78     	; 0x1bba <mc_executaPrograma+0x40>
		USB_USBTask();
		
		//*
		//****************************************
	}
}
    1c08:	2c 96       	adiw	r28, 0x0c	; 12
    1c0a:	0f b6       	in	r0, 0x3f	; 63
    1c0c:	f8 94       	cli
    1c0e:	de bf       	out	0x3e, r29	; 62
    1c10:	0f be       	out	0x3f, r0	; 63
    1c12:	cd bf       	out	0x3d, r28	; 61
    1c14:	df 91       	pop	r29
    1c16:	cf 91       	pop	r28
    1c18:	1f 91       	pop	r17
    1c1a:	0f 91       	pop	r16
    1c1c:	08 95       	ret

00001c1e <envieUSB_dado>:
		enviarUSB();
	}
}

void envieUSB_dado(int16_t word)
{
    1c1e:	0f 93       	push	r16
    1c20:	1f 93       	push	r17
    1c22:	cf 93       	push	r28
    1c24:	df 93       	push	r29
    1c26:	9c 01       	movw	r18, r24
	if ((USB_DeviceState == DEVICE_STATE_Configured) && !(RingBuffer_IsFull(&USB_DadosParaEnviar_pt)))
    1c28:	8e b3       	in	r24, 0x1e	; 30
    1c2a:	84 30       	cpi	r24, 0x04	; 4
    1c2c:	09 f0       	breq	.+2      	; 0x1c30 <envieUSB_dado+0x12>
    1c2e:	4e c2       	rjmp	.+1180   	; 0x20cc <envieUSB_dado+0x4ae>
			static inline uint_reg_t GetGlobalInterruptMask(void)
			{
				GCC_MEMORY_BARRIER();

				#if (ARCH == ARCH_AVR8)
				return SREG;
    1c30:	8f b7       	in	r24, 0x3f	; 63
			static inline void GlobalInterruptDisable(void)
			{
				GCC_MEMORY_BARRIER();

				#if (ARCH == ARCH_AVR8)
				cli();
    1c32:	f8 94       	cli
			uint16_t Count;

			uint_reg_t CurrentGlobalInt = GetGlobalInterruptMask();
			GlobalInterruptDisable();

			Count = Buffer->Count;
    1c34:	40 91 e4 01 	lds	r20, 0x01E4
    1c38:	50 91 e5 01 	lds	r21, 0x01E5
			static inline void SetGlobalInterruptMask(const uint_reg_t GlobalIntState)
			{
				GCC_MEMORY_BARRIER();

				#if (ARCH == ARCH_AVR8)
				SREG = GlobalIntState;
    1c3c:	8f bf       	out	0x3f, r24	; 63
    1c3e:	80 91 e2 01 	lds	r24, 0x01E2
    1c42:	90 91 e3 01 	lds	r25, 0x01E3
    1c46:	48 17       	cp	r20, r24
    1c48:	59 07       	cpc	r21, r25
    1c4a:	09 f4       	brne	.+2      	; 0x1c4e <envieUSB_dado+0x30>
    1c4c:	3f c2       	rjmp	.+1150   	; 0x20cc <envieUSB_dado+0x4ae>
	{
		if (word < 0) 
    1c4e:	33 23       	and	r19, r19
    1c50:	fc f4       	brge	.+62     	; 0x1c90 <envieUSB_dado+0x72>
		static inline void RingBuffer_Insert(RingBuffer_t* Buffer,
		                                     const uint8_t Data) ATTR_NON_NULL_PTR_ARG(1);
		static inline void RingBuffer_Insert(RingBuffer_t* Buffer,
		                                     const uint8_t Data)
		{
			GCC_FORCE_POINTER_ACCESS(Buffer);
    1c52:	ea ed       	ldi	r30, 0xDA	; 218
    1c54:	f1 e0       	ldi	r31, 0x01	; 1

			*Buffer->In = Data;
    1c56:	a0 81       	ld	r26, Z
    1c58:	b1 81       	ldd	r27, Z+1	; 0x01
    1c5a:	8d e2       	ldi	r24, 0x2D	; 45
    1c5c:	8c 93       	st	X, r24

			if (++Buffer->In == Buffer->End)
    1c5e:	80 81       	ld	r24, Z
    1c60:	91 81       	ldd	r25, Z+1	; 0x01
    1c62:	01 96       	adiw	r24, 0x01	; 1
    1c64:	91 83       	std	Z+1, r25	; 0x01
    1c66:	80 83       	st	Z, r24
    1c68:	46 81       	ldd	r20, Z+6	; 0x06
    1c6a:	57 81       	ldd	r21, Z+7	; 0x07
    1c6c:	84 17       	cp	r24, r20
    1c6e:	95 07       	cpc	r25, r21
    1c70:	21 f4       	brne	.+8      	; 0x1c7a <envieUSB_dado+0x5c>
			  Buffer->In = Buffer->Start;
    1c72:	84 81       	ldd	r24, Z+4	; 0x04
    1c74:	95 81       	ldd	r25, Z+5	; 0x05
    1c76:	91 83       	std	Z+1, r25	; 0x01
    1c78:	80 83       	st	Z, r24
			static inline uint_reg_t GetGlobalInterruptMask(void)
			{
				GCC_MEMORY_BARRIER();

				#if (ARCH == ARCH_AVR8)
				return SREG;
    1c7a:	4f b7       	in	r20, 0x3f	; 63
			static inline void GlobalInterruptDisable(void)
			{
				GCC_MEMORY_BARRIER();

				#if (ARCH == ARCH_AVR8)
				cli();
    1c7c:	f8 94       	cli

			uint_reg_t CurrentGlobalInt = GetGlobalInterruptMask();
			GlobalInterruptDisable();

			Buffer->Count++;
    1c7e:	82 85       	ldd	r24, Z+10	; 0x0a
    1c80:	93 85       	ldd	r25, Z+11	; 0x0b
    1c82:	01 96       	adiw	r24, 0x01	; 1
    1c84:	93 87       	std	Z+11, r25	; 0x0b
    1c86:	82 87       	std	Z+10, r24	; 0x0a
			static inline void SetGlobalInterruptMask(const uint_reg_t GlobalIntState)
			{
				GCC_MEMORY_BARRIER();

				#if (ARCH == ARCH_AVR8)
				SREG = GlobalIntState;
    1c88:	4f bf       	out	0x3f, r20	; 63
		{
			RingBuffer_Insert(&USB_DadosParaEnviar_pt,'-');										/* sinal de - */
			word *= -1;
    1c8a:	31 95       	neg	r19
    1c8c:	21 95       	neg	r18
    1c8e:	31 09       	sbc	r19, r1
		}
		if (word > 10000) 
    1c90:	21 31       	cpi	r18, 0x11	; 17
    1c92:	87 e2       	ldi	r24, 0x27	; 39
    1c94:	38 07       	cpc	r19, r24
    1c96:	0c f4       	brge	.+2      	; 0x1c9a <envieUSB_dado+0x7c>
    1c98:	b2 c0       	rjmp	.+356    	; 0x1dfe <envieUSB_dado+0x1e0>
		static inline void RingBuffer_Insert(RingBuffer_t* Buffer,
		                                     const uint8_t Data) ATTR_NON_NULL_PTR_ARG(1);
		static inline void RingBuffer_Insert(RingBuffer_t* Buffer,
		                                     const uint8_t Data)
		{
			GCC_FORCE_POINTER_ACCESS(Buffer);
    1c9a:	ea ed       	ldi	r30, 0xDA	; 218
    1c9c:	f1 e0       	ldi	r31, 0x01	; 1

			*Buffer->In = Data;
    1c9e:	c0 81       	ld	r28, Z
    1ca0:	d1 81       	ldd	r29, Z+1	; 0x01
		{
			RingBuffer_Insert(&USB_DadosParaEnviar_pt,'0' + (word / 10000));					/* Milhar */
    1ca2:	c9 01       	movw	r24, r18
    1ca4:	60 e1       	ldi	r22, 0x10	; 16
    1ca6:	77 e2       	ldi	r23, 0x27	; 39
    1ca8:	8a d4       	rcall	.+2324   	; 0x25be <__divmodhi4>
    1caa:	60 5d       	subi	r22, 0xD0	; 208
    1cac:	68 83       	st	Y, r22

			if (++Buffer->In == Buffer->End)
    1cae:	80 81       	ld	r24, Z
    1cb0:	91 81       	ldd	r25, Z+1	; 0x01
    1cb2:	01 96       	adiw	r24, 0x01	; 1
    1cb4:	91 83       	std	Z+1, r25	; 0x01
    1cb6:	80 83       	st	Z, r24
    1cb8:	46 81       	ldd	r20, Z+6	; 0x06
    1cba:	57 81       	ldd	r21, Z+7	; 0x07
    1cbc:	84 17       	cp	r24, r20
    1cbe:	95 07       	cpc	r25, r21
    1cc0:	21 f4       	brne	.+8      	; 0x1cca <envieUSB_dado+0xac>
			  Buffer->In = Buffer->Start;
    1cc2:	84 81       	ldd	r24, Z+4	; 0x04
    1cc4:	95 81       	ldd	r25, Z+5	; 0x05
    1cc6:	91 83       	std	Z+1, r25	; 0x01
    1cc8:	80 83       	st	Z, r24
			static inline uint_reg_t GetGlobalInterruptMask(void)
			{
				GCC_MEMORY_BARRIER();

				#if (ARCH == ARCH_AVR8)
				return SREG;
    1cca:	4f b7       	in	r20, 0x3f	; 63
			static inline void GlobalInterruptDisable(void)
			{
				GCC_MEMORY_BARRIER();

				#if (ARCH == ARCH_AVR8)
				cli();
    1ccc:	f8 94       	cli

			uint_reg_t CurrentGlobalInt = GetGlobalInterruptMask();
			GlobalInterruptDisable();

			Buffer->Count++;
    1cce:	82 85       	ldd	r24, Z+10	; 0x0a
    1cd0:	93 85       	ldd	r25, Z+11	; 0x0b
    1cd2:	01 96       	adiw	r24, 0x01	; 1
    1cd4:	93 87       	std	Z+11, r25	; 0x0b
    1cd6:	82 87       	std	Z+10, r24	; 0x0a
			static inline void SetGlobalInterruptMask(const uint_reg_t GlobalIntState)
			{
				GCC_MEMORY_BARRIER();

				#if (ARCH == ARCH_AVR8)
				SREG = GlobalIntState;
    1cd8:	4f bf       	out	0x3f, r20	; 63
			word %= 10000;
    1cda:	c9 01       	movw	r24, r18
    1cdc:	60 e1       	ldi	r22, 0x10	; 16
    1cde:	77 e2       	ldi	r23, 0x27	; 39
    1ce0:	6e d4       	rcall	.+2268   	; 0x25be <__divmodhi4>
    1ce2:	9c 01       	movw	r18, r24
		static inline void RingBuffer_Insert(RingBuffer_t* Buffer,
		                                     const uint8_t Data) ATTR_NON_NULL_PTR_ARG(1);
		static inline void RingBuffer_Insert(RingBuffer_t* Buffer,
		                                     const uint8_t Data)
		{
			GCC_FORCE_POINTER_ACCESS(Buffer);
    1ce4:	ea ed       	ldi	r30, 0xDA	; 218
    1ce6:	f1 e0       	ldi	r31, 0x01	; 1

			*Buffer->In = Data;
    1ce8:	c0 81       	ld	r28, Z
    1cea:	d1 81       	ldd	r29, Z+1	; 0x01
			RingBuffer_Insert(&USB_DadosParaEnviar_pt,'0' + ((word / 1000) % 10));              /* centena */
    1cec:	68 ee       	ldi	r22, 0xE8	; 232
    1cee:	73 e0       	ldi	r23, 0x03	; 3
    1cf0:	66 d4       	rcall	.+2252   	; 0x25be <__divmodhi4>
    1cf2:	cb 01       	movw	r24, r22
    1cf4:	6a e0       	ldi	r22, 0x0A	; 10
    1cf6:	70 e0       	ldi	r23, 0x00	; 0
    1cf8:	62 d4       	rcall	.+2244   	; 0x25be <__divmodhi4>
    1cfa:	80 5d       	subi	r24, 0xD0	; 208
    1cfc:	88 83       	st	Y, r24

			if (++Buffer->In == Buffer->End)
    1cfe:	80 81       	ld	r24, Z
    1d00:	91 81       	ldd	r25, Z+1	; 0x01
    1d02:	01 96       	adiw	r24, 0x01	; 1
    1d04:	91 83       	std	Z+1, r25	; 0x01
    1d06:	80 83       	st	Z, r24
    1d08:	46 81       	ldd	r20, Z+6	; 0x06
    1d0a:	57 81       	ldd	r21, Z+7	; 0x07
    1d0c:	84 17       	cp	r24, r20
    1d0e:	95 07       	cpc	r25, r21
    1d10:	21 f4       	brne	.+8      	; 0x1d1a <envieUSB_dado+0xfc>
			  Buffer->In = Buffer->Start;
    1d12:	84 81       	ldd	r24, Z+4	; 0x04
    1d14:	95 81       	ldd	r25, Z+5	; 0x05
    1d16:	91 83       	std	Z+1, r25	; 0x01
    1d18:	80 83       	st	Z, r24
			static inline uint_reg_t GetGlobalInterruptMask(void)
			{
				GCC_MEMORY_BARRIER();

				#if (ARCH == ARCH_AVR8)
				return SREG;
    1d1a:	4f b7       	in	r20, 0x3f	; 63
			static inline void GlobalInterruptDisable(void)
			{
				GCC_MEMORY_BARRIER();

				#if (ARCH == ARCH_AVR8)
				cli();
    1d1c:	f8 94       	cli

			uint_reg_t CurrentGlobalInt = GetGlobalInterruptMask();
			GlobalInterruptDisable();

			Buffer->Count++;
    1d1e:	82 85       	ldd	r24, Z+10	; 0x0a
    1d20:	93 85       	ldd	r25, Z+11	; 0x0b
    1d22:	01 96       	adiw	r24, 0x01	; 1
    1d24:	93 87       	std	Z+11, r25	; 0x0b
    1d26:	82 87       	std	Z+10, r24	; 0x0a
			static inline void SetGlobalInterruptMask(const uint_reg_t GlobalIntState)
			{
				GCC_MEMORY_BARRIER();

				#if (ARCH == ARCH_AVR8)
				SREG = GlobalIntState;
    1d28:	4f bf       	out	0x3f, r20	; 63
		static inline void RingBuffer_Insert(RingBuffer_t* Buffer,
		                                     const uint8_t Data) ATTR_NON_NULL_PTR_ARG(1);
		static inline void RingBuffer_Insert(RingBuffer_t* Buffer,
		                                     const uint8_t Data)
		{
			GCC_FORCE_POINTER_ACCESS(Buffer);
    1d2a:	ea ed       	ldi	r30, 0xDA	; 218
    1d2c:	f1 e0       	ldi	r31, 0x01	; 1

			*Buffer->In = Data;
    1d2e:	c0 81       	ld	r28, Z
    1d30:	d1 81       	ldd	r29, Z+1	; 0x01
			RingBuffer_Insert(&USB_DadosParaEnviar_pt,'0' + ((word / 100) % 10));               /* dezena */
    1d32:	c9 01       	movw	r24, r18
    1d34:	64 e6       	ldi	r22, 0x64	; 100
    1d36:	70 e0       	ldi	r23, 0x00	; 0
    1d38:	42 d4       	rcall	.+2180   	; 0x25be <__divmodhi4>
    1d3a:	cb 01       	movw	r24, r22
    1d3c:	6a e0       	ldi	r22, 0x0A	; 10
    1d3e:	70 e0       	ldi	r23, 0x00	; 0
    1d40:	3e d4       	rcall	.+2172   	; 0x25be <__divmodhi4>
    1d42:	80 5d       	subi	r24, 0xD0	; 208
    1d44:	88 83       	st	Y, r24

			if (++Buffer->In == Buffer->End)
    1d46:	80 81       	ld	r24, Z
    1d48:	91 81       	ldd	r25, Z+1	; 0x01
    1d4a:	01 96       	adiw	r24, 0x01	; 1
    1d4c:	91 83       	std	Z+1, r25	; 0x01
    1d4e:	80 83       	st	Z, r24
    1d50:	46 81       	ldd	r20, Z+6	; 0x06
    1d52:	57 81       	ldd	r21, Z+7	; 0x07
    1d54:	84 17       	cp	r24, r20
    1d56:	95 07       	cpc	r25, r21
    1d58:	21 f4       	brne	.+8      	; 0x1d62 <envieUSB_dado+0x144>
			  Buffer->In = Buffer->Start;
    1d5a:	84 81       	ldd	r24, Z+4	; 0x04
    1d5c:	95 81       	ldd	r25, Z+5	; 0x05
    1d5e:	91 83       	std	Z+1, r25	; 0x01
    1d60:	80 83       	st	Z, r24
			static inline uint_reg_t GetGlobalInterruptMask(void)
			{
				GCC_MEMORY_BARRIER();

				#if (ARCH == ARCH_AVR8)
				return SREG;
    1d62:	4f b7       	in	r20, 0x3f	; 63
			static inline void GlobalInterruptDisable(void)
			{
				GCC_MEMORY_BARRIER();

				#if (ARCH == ARCH_AVR8)
				cli();
    1d64:	f8 94       	cli

			uint_reg_t CurrentGlobalInt = GetGlobalInterruptMask();
			GlobalInterruptDisable();

			Buffer->Count++;
    1d66:	82 85       	ldd	r24, Z+10	; 0x0a
    1d68:	93 85       	ldd	r25, Z+11	; 0x0b
    1d6a:	01 96       	adiw	r24, 0x01	; 1
    1d6c:	93 87       	std	Z+11, r25	; 0x0b
    1d6e:	82 87       	std	Z+10, r24	; 0x0a
			static inline void SetGlobalInterruptMask(const uint_reg_t GlobalIntState)
			{
				GCC_MEMORY_BARRIER();

				#if (ARCH == ARCH_AVR8)
				SREG = GlobalIntState;
    1d70:	4f bf       	out	0x3f, r20	; 63
		static inline void RingBuffer_Insert(RingBuffer_t* Buffer,
		                                     const uint8_t Data) ATTR_NON_NULL_PTR_ARG(1);
		static inline void RingBuffer_Insert(RingBuffer_t* Buffer,
		                                     const uint8_t Data)
		{
			GCC_FORCE_POINTER_ACCESS(Buffer);
    1d72:	ea ed       	ldi	r30, 0xDA	; 218
    1d74:	f1 e0       	ldi	r31, 0x01	; 1

			*Buffer->In = Data;
    1d76:	00 81       	ld	r16, Z
    1d78:	11 81       	ldd	r17, Z+1	; 0x01
			RingBuffer_Insert(&USB_DadosParaEnviar_pt,'0' + ((word / 10) % 10));                /* dezena */
    1d7a:	ca e0       	ldi	r28, 0x0A	; 10
    1d7c:	d0 e0       	ldi	r29, 0x00	; 0
    1d7e:	c9 01       	movw	r24, r18
    1d80:	be 01       	movw	r22, r28
    1d82:	1d d4       	rcall	.+2106   	; 0x25be <__divmodhi4>
    1d84:	cb 01       	movw	r24, r22
    1d86:	be 01       	movw	r22, r28
    1d88:	1a d4       	rcall	.+2100   	; 0x25be <__divmodhi4>
    1d8a:	80 5d       	subi	r24, 0xD0	; 208
    1d8c:	d8 01       	movw	r26, r16
    1d8e:	8c 93       	st	X, r24

			if (++Buffer->In == Buffer->End)
    1d90:	80 81       	ld	r24, Z
    1d92:	91 81       	ldd	r25, Z+1	; 0x01
    1d94:	01 96       	adiw	r24, 0x01	; 1
    1d96:	91 83       	std	Z+1, r25	; 0x01
    1d98:	80 83       	st	Z, r24
    1d9a:	46 81       	ldd	r20, Z+6	; 0x06
    1d9c:	57 81       	ldd	r21, Z+7	; 0x07
    1d9e:	84 17       	cp	r24, r20
    1da0:	95 07       	cpc	r25, r21
    1da2:	21 f4       	brne	.+8      	; 0x1dac <envieUSB_dado+0x18e>
			  Buffer->In = Buffer->Start;
    1da4:	84 81       	ldd	r24, Z+4	; 0x04
    1da6:	95 81       	ldd	r25, Z+5	; 0x05
    1da8:	91 83       	std	Z+1, r25	; 0x01
    1daa:	80 83       	st	Z, r24
			static inline uint_reg_t GetGlobalInterruptMask(void)
			{
				GCC_MEMORY_BARRIER();

				#if (ARCH == ARCH_AVR8)
				return SREG;
    1dac:	4f b7       	in	r20, 0x3f	; 63
			static inline void GlobalInterruptDisable(void)
			{
				GCC_MEMORY_BARRIER();

				#if (ARCH == ARCH_AVR8)
				cli();
    1dae:	f8 94       	cli

			uint_reg_t CurrentGlobalInt = GetGlobalInterruptMask();
			GlobalInterruptDisable();

			Buffer->Count++;
    1db0:	82 85       	ldd	r24, Z+10	; 0x0a
    1db2:	93 85       	ldd	r25, Z+11	; 0x0b
    1db4:	01 96       	adiw	r24, 0x01	; 1
    1db6:	93 87       	std	Z+11, r25	; 0x0b
    1db8:	82 87       	std	Z+10, r24	; 0x0a
			static inline void SetGlobalInterruptMask(const uint_reg_t GlobalIntState)
			{
				GCC_MEMORY_BARRIER();

				#if (ARCH == ARCH_AVR8)
				SREG = GlobalIntState;
    1dba:	4f bf       	out	0x3f, r20	; 63
		static inline void RingBuffer_Insert(RingBuffer_t* Buffer,
		                                     const uint8_t Data) ATTR_NON_NULL_PTR_ARG(1);
		static inline void RingBuffer_Insert(RingBuffer_t* Buffer,
		                                     const uint8_t Data)
		{
			GCC_FORCE_POINTER_ACCESS(Buffer);
    1dbc:	ea ed       	ldi	r30, 0xDA	; 218
    1dbe:	f1 e0       	ldi	r31, 0x01	; 1

			*Buffer->In = Data;
    1dc0:	c0 81       	ld	r28, Z
    1dc2:	d1 81       	ldd	r29, Z+1	; 0x01
			RingBuffer_Insert(&USB_DadosParaEnviar_pt,'0' + (word % 10));                       /* unidade */
    1dc4:	c9 01       	movw	r24, r18
    1dc6:	6a e0       	ldi	r22, 0x0A	; 10
    1dc8:	70 e0       	ldi	r23, 0x00	; 0
    1dca:	f9 d3       	rcall	.+2034   	; 0x25be <__divmodhi4>
    1dcc:	80 5d       	subi	r24, 0xD0	; 208
    1dce:	88 83       	st	Y, r24

			if (++Buffer->In == Buffer->End)
    1dd0:	80 81       	ld	r24, Z
    1dd2:	91 81       	ldd	r25, Z+1	; 0x01
    1dd4:	01 96       	adiw	r24, 0x01	; 1
    1dd6:	91 83       	std	Z+1, r25	; 0x01
    1dd8:	80 83       	st	Z, r24
    1dda:	26 81       	ldd	r18, Z+6	; 0x06
    1ddc:	37 81       	ldd	r19, Z+7	; 0x07
    1dde:	82 17       	cp	r24, r18
    1de0:	93 07       	cpc	r25, r19
    1de2:	21 f4       	brne	.+8      	; 0x1dec <envieUSB_dado+0x1ce>
			  Buffer->In = Buffer->Start;
    1de4:	84 81       	ldd	r24, Z+4	; 0x04
    1de6:	95 81       	ldd	r25, Z+5	; 0x05
    1de8:	91 83       	std	Z+1, r25	; 0x01
    1dea:	80 83       	st	Z, r24
			static inline uint_reg_t GetGlobalInterruptMask(void)
			{
				GCC_MEMORY_BARRIER();

				#if (ARCH == ARCH_AVR8)
				return SREG;
    1dec:	2f b7       	in	r18, 0x3f	; 63
			static inline void GlobalInterruptDisable(void)
			{
				GCC_MEMORY_BARRIER();

				#if (ARCH == ARCH_AVR8)
				cli();
    1dee:	f8 94       	cli

			uint_reg_t CurrentGlobalInt = GetGlobalInterruptMask();
			GlobalInterruptDisable();

			Buffer->Count++;
    1df0:	82 85       	ldd	r24, Z+10	; 0x0a
    1df2:	93 85       	ldd	r25, Z+11	; 0x0b
    1df4:	01 96       	adiw	r24, 0x01	; 1
    1df6:	93 87       	std	Z+11, r25	; 0x0b
    1df8:	82 87       	std	Z+10, r24	; 0x0a
			static inline void SetGlobalInterruptMask(const uint_reg_t GlobalIntState)
			{
				GCC_MEMORY_BARRIER();

				#if (ARCH == ARCH_AVR8)
				SREG = GlobalIntState;
    1dfa:	2f bf       	out	0x3f, r18	; 63
				  __builtin_csrf(AVR32_SR_GM_OFFSET);
				#elif (ARCH == ARCH_XMEGA)
				SREG = GlobalIntState;
				#endif

				GCC_MEMORY_BARRIER();
    1dfc:	66 c1       	rjmp	.+716    	; 0x20ca <envieUSB_dado+0x4ac>
		}
		else if (word > 1000) 
    1dfe:	29 3e       	cpi	r18, 0xE9	; 233
    1e00:	b3 e0       	ldi	r27, 0x03	; 3
    1e02:	3b 07       	cpc	r19, r27
    1e04:	0c f4       	brge	.+2      	; 0x1e08 <envieUSB_dado+0x1ea>
    1e06:	8e c0       	rjmp	.+284    	; 0x1f24 <envieUSB_dado+0x306>
		static inline void RingBuffer_Insert(RingBuffer_t* Buffer,
		                                     const uint8_t Data) ATTR_NON_NULL_PTR_ARG(1);
		static inline void RingBuffer_Insert(RingBuffer_t* Buffer,
		                                     const uint8_t Data)
		{
			GCC_FORCE_POINTER_ACCESS(Buffer);
    1e08:	ea ed       	ldi	r30, 0xDA	; 218
    1e0a:	f1 e0       	ldi	r31, 0x01	; 1

			*Buffer->In = Data;
    1e0c:	c0 81       	ld	r28, Z
    1e0e:	d1 81       	ldd	r29, Z+1	; 0x01
			{
				RingBuffer_Insert(&USB_DadosParaEnviar_pt,'0' + (word / 1000));					/* milhar */
    1e10:	c9 01       	movw	r24, r18
    1e12:	68 ee       	ldi	r22, 0xE8	; 232
    1e14:	73 e0       	ldi	r23, 0x03	; 3
    1e16:	d3 d3       	rcall	.+1958   	; 0x25be <__divmodhi4>
    1e18:	60 5d       	subi	r22, 0xD0	; 208
    1e1a:	68 83       	st	Y, r22

			if (++Buffer->In == Buffer->End)
    1e1c:	80 81       	ld	r24, Z
    1e1e:	91 81       	ldd	r25, Z+1	; 0x01
    1e20:	01 96       	adiw	r24, 0x01	; 1
    1e22:	91 83       	std	Z+1, r25	; 0x01
    1e24:	80 83       	st	Z, r24
    1e26:	46 81       	ldd	r20, Z+6	; 0x06
    1e28:	57 81       	ldd	r21, Z+7	; 0x07
    1e2a:	84 17       	cp	r24, r20
    1e2c:	95 07       	cpc	r25, r21
    1e2e:	21 f4       	brne	.+8      	; 0x1e38 <envieUSB_dado+0x21a>
			  Buffer->In = Buffer->Start;
    1e30:	84 81       	ldd	r24, Z+4	; 0x04
    1e32:	95 81       	ldd	r25, Z+5	; 0x05
    1e34:	91 83       	std	Z+1, r25	; 0x01
    1e36:	80 83       	st	Z, r24
			static inline uint_reg_t GetGlobalInterruptMask(void)
			{
				GCC_MEMORY_BARRIER();

				#if (ARCH == ARCH_AVR8)
				return SREG;
    1e38:	4f b7       	in	r20, 0x3f	; 63
			static inline void GlobalInterruptDisable(void)
			{
				GCC_MEMORY_BARRIER();

				#if (ARCH == ARCH_AVR8)
				cli();
    1e3a:	f8 94       	cli

			uint_reg_t CurrentGlobalInt = GetGlobalInterruptMask();
			GlobalInterruptDisable();

			Buffer->Count++;
    1e3c:	82 85       	ldd	r24, Z+10	; 0x0a
    1e3e:	93 85       	ldd	r25, Z+11	; 0x0b
    1e40:	01 96       	adiw	r24, 0x01	; 1
    1e42:	93 87       	std	Z+11, r25	; 0x0b
    1e44:	82 87       	std	Z+10, r24	; 0x0a
			static inline void SetGlobalInterruptMask(const uint_reg_t GlobalIntState)
			{
				GCC_MEMORY_BARRIER();

				#if (ARCH == ARCH_AVR8)
				SREG = GlobalIntState;
    1e46:	4f bf       	out	0x3f, r20	; 63
				word %= 1000;
    1e48:	c9 01       	movw	r24, r18
    1e4a:	68 ee       	ldi	r22, 0xE8	; 232
    1e4c:	73 e0       	ldi	r23, 0x03	; 3
    1e4e:	b7 d3       	rcall	.+1902   	; 0x25be <__divmodhi4>
    1e50:	9c 01       	movw	r18, r24
		static inline void RingBuffer_Insert(RingBuffer_t* Buffer,
		                                     const uint8_t Data) ATTR_NON_NULL_PTR_ARG(1);
		static inline void RingBuffer_Insert(RingBuffer_t* Buffer,
		                                     const uint8_t Data)
		{
			GCC_FORCE_POINTER_ACCESS(Buffer);
    1e52:	ea ed       	ldi	r30, 0xDA	; 218
    1e54:	f1 e0       	ldi	r31, 0x01	; 1

			*Buffer->In = Data;
    1e56:	c0 81       	ld	r28, Z
    1e58:	d1 81       	ldd	r29, Z+1	; 0x01
				RingBuffer_Insert(&USB_DadosParaEnviar_pt,'0' + ((word / 100) % 10));           /* desena */
    1e5a:	64 e6       	ldi	r22, 0x64	; 100
    1e5c:	70 e0       	ldi	r23, 0x00	; 0
    1e5e:	af d3       	rcall	.+1886   	; 0x25be <__divmodhi4>
    1e60:	cb 01       	movw	r24, r22
    1e62:	6a e0       	ldi	r22, 0x0A	; 10
    1e64:	70 e0       	ldi	r23, 0x00	; 0
    1e66:	ab d3       	rcall	.+1878   	; 0x25be <__divmodhi4>
    1e68:	80 5d       	subi	r24, 0xD0	; 208
    1e6a:	88 83       	st	Y, r24

			if (++Buffer->In == Buffer->End)
    1e6c:	80 81       	ld	r24, Z
    1e6e:	91 81       	ldd	r25, Z+1	; 0x01
    1e70:	01 96       	adiw	r24, 0x01	; 1
    1e72:	91 83       	std	Z+1, r25	; 0x01
    1e74:	80 83       	st	Z, r24
    1e76:	46 81       	ldd	r20, Z+6	; 0x06
    1e78:	57 81       	ldd	r21, Z+7	; 0x07
    1e7a:	84 17       	cp	r24, r20
    1e7c:	95 07       	cpc	r25, r21
    1e7e:	21 f4       	brne	.+8      	; 0x1e88 <envieUSB_dado+0x26a>
			  Buffer->In = Buffer->Start;
    1e80:	84 81       	ldd	r24, Z+4	; 0x04
    1e82:	95 81       	ldd	r25, Z+5	; 0x05
    1e84:	91 83       	std	Z+1, r25	; 0x01
    1e86:	80 83       	st	Z, r24
			static inline uint_reg_t GetGlobalInterruptMask(void)
			{
				GCC_MEMORY_BARRIER();

				#if (ARCH == ARCH_AVR8)
				return SREG;
    1e88:	4f b7       	in	r20, 0x3f	; 63
			static inline void GlobalInterruptDisable(void)
			{
				GCC_MEMORY_BARRIER();

				#if (ARCH == ARCH_AVR8)
				cli();
    1e8a:	f8 94       	cli

			uint_reg_t CurrentGlobalInt = GetGlobalInterruptMask();
			GlobalInterruptDisable();

			Buffer->Count++;
    1e8c:	82 85       	ldd	r24, Z+10	; 0x0a
    1e8e:	93 85       	ldd	r25, Z+11	; 0x0b
    1e90:	01 96       	adiw	r24, 0x01	; 1
    1e92:	93 87       	std	Z+11, r25	; 0x0b
    1e94:	82 87       	std	Z+10, r24	; 0x0a
			static inline void SetGlobalInterruptMask(const uint_reg_t GlobalIntState)
			{
				GCC_MEMORY_BARRIER();

				#if (ARCH == ARCH_AVR8)
				SREG = GlobalIntState;
    1e96:	4f bf       	out	0x3f, r20	; 63
		static inline void RingBuffer_Insert(RingBuffer_t* Buffer,
		                                     const uint8_t Data) ATTR_NON_NULL_PTR_ARG(1);
		static inline void RingBuffer_Insert(RingBuffer_t* Buffer,
		                                     const uint8_t Data)
		{
			GCC_FORCE_POINTER_ACCESS(Buffer);
    1e98:	ea ed       	ldi	r30, 0xDA	; 218
    1e9a:	f1 e0       	ldi	r31, 0x01	; 1

			*Buffer->In = Data;
    1e9c:	00 81       	ld	r16, Z
    1e9e:	11 81       	ldd	r17, Z+1	; 0x01
				RingBuffer_Insert(&USB_DadosParaEnviar_pt,'0' + ((word / 10) % 10));            /* Tens */
    1ea0:	ca e0       	ldi	r28, 0x0A	; 10
    1ea2:	d0 e0       	ldi	r29, 0x00	; 0
    1ea4:	c9 01       	movw	r24, r18
    1ea6:	be 01       	movw	r22, r28
    1ea8:	8a d3       	rcall	.+1812   	; 0x25be <__divmodhi4>
    1eaa:	cb 01       	movw	r24, r22
    1eac:	be 01       	movw	r22, r28
    1eae:	87 d3       	rcall	.+1806   	; 0x25be <__divmodhi4>
    1eb0:	80 5d       	subi	r24, 0xD0	; 208
    1eb2:	d8 01       	movw	r26, r16
    1eb4:	8c 93       	st	X, r24

			if (++Buffer->In == Buffer->End)
    1eb6:	80 81       	ld	r24, Z
    1eb8:	91 81       	ldd	r25, Z+1	; 0x01
    1eba:	01 96       	adiw	r24, 0x01	; 1
    1ebc:	91 83       	std	Z+1, r25	; 0x01
    1ebe:	80 83       	st	Z, r24
    1ec0:	46 81       	ldd	r20, Z+6	; 0x06
    1ec2:	57 81       	ldd	r21, Z+7	; 0x07
    1ec4:	84 17       	cp	r24, r20
    1ec6:	95 07       	cpc	r25, r21
    1ec8:	21 f4       	brne	.+8      	; 0x1ed2 <envieUSB_dado+0x2b4>
			  Buffer->In = Buffer->Start;
    1eca:	84 81       	ldd	r24, Z+4	; 0x04
    1ecc:	95 81       	ldd	r25, Z+5	; 0x05
    1ece:	91 83       	std	Z+1, r25	; 0x01
    1ed0:	80 83       	st	Z, r24
			static inline uint_reg_t GetGlobalInterruptMask(void)
			{
				GCC_MEMORY_BARRIER();

				#if (ARCH == ARCH_AVR8)
				return SREG;
    1ed2:	4f b7       	in	r20, 0x3f	; 63
			static inline void GlobalInterruptDisable(void)
			{
				GCC_MEMORY_BARRIER();

				#if (ARCH == ARCH_AVR8)
				cli();
    1ed4:	f8 94       	cli

			uint_reg_t CurrentGlobalInt = GetGlobalInterruptMask();
			GlobalInterruptDisable();

			Buffer->Count++;
    1ed6:	82 85       	ldd	r24, Z+10	; 0x0a
    1ed8:	93 85       	ldd	r25, Z+11	; 0x0b
    1eda:	01 96       	adiw	r24, 0x01	; 1
    1edc:	93 87       	std	Z+11, r25	; 0x0b
    1ede:	82 87       	std	Z+10, r24	; 0x0a
			static inline void SetGlobalInterruptMask(const uint_reg_t GlobalIntState)
			{
				GCC_MEMORY_BARRIER();

				#if (ARCH == ARCH_AVR8)
				SREG = GlobalIntState;
    1ee0:	4f bf       	out	0x3f, r20	; 63
		static inline void RingBuffer_Insert(RingBuffer_t* Buffer,
		                                     const uint8_t Data) ATTR_NON_NULL_PTR_ARG(1);
		static inline void RingBuffer_Insert(RingBuffer_t* Buffer,
		                                     const uint8_t Data)
		{
			GCC_FORCE_POINTER_ACCESS(Buffer);
    1ee2:	ea ed       	ldi	r30, 0xDA	; 218
    1ee4:	f1 e0       	ldi	r31, 0x01	; 1

			*Buffer->In = Data;
    1ee6:	c0 81       	ld	r28, Z
    1ee8:	d1 81       	ldd	r29, Z+1	; 0x01
				RingBuffer_Insert(&USB_DadosParaEnviar_pt,'0' + (word % 10));                   /* unidade */
    1eea:	c9 01       	movw	r24, r18
    1eec:	6a e0       	ldi	r22, 0x0A	; 10
    1eee:	70 e0       	ldi	r23, 0x00	; 0
    1ef0:	66 d3       	rcall	.+1740   	; 0x25be <__divmodhi4>
    1ef2:	80 5d       	subi	r24, 0xD0	; 208
    1ef4:	88 83       	st	Y, r24

			if (++Buffer->In == Buffer->End)
    1ef6:	80 81       	ld	r24, Z
    1ef8:	91 81       	ldd	r25, Z+1	; 0x01
    1efa:	01 96       	adiw	r24, 0x01	; 1
    1efc:	91 83       	std	Z+1, r25	; 0x01
    1efe:	80 83       	st	Z, r24
    1f00:	26 81       	ldd	r18, Z+6	; 0x06
    1f02:	37 81       	ldd	r19, Z+7	; 0x07
    1f04:	82 17       	cp	r24, r18
    1f06:	93 07       	cpc	r25, r19
    1f08:	21 f4       	brne	.+8      	; 0x1f12 <envieUSB_dado+0x2f4>
			  Buffer->In = Buffer->Start;
    1f0a:	84 81       	ldd	r24, Z+4	; 0x04
    1f0c:	95 81       	ldd	r25, Z+5	; 0x05
    1f0e:	91 83       	std	Z+1, r25	; 0x01
    1f10:	80 83       	st	Z, r24
			static inline uint_reg_t GetGlobalInterruptMask(void)
			{
				GCC_MEMORY_BARRIER();

				#if (ARCH == ARCH_AVR8)
				return SREG;
    1f12:	2f b7       	in	r18, 0x3f	; 63
			static inline void GlobalInterruptDisable(void)
			{
				GCC_MEMORY_BARRIER();

				#if (ARCH == ARCH_AVR8)
				cli();
    1f14:	f8 94       	cli

			uint_reg_t CurrentGlobalInt = GetGlobalInterruptMask();
			GlobalInterruptDisable();

			Buffer->Count++;
    1f16:	82 85       	ldd	r24, Z+10	; 0x0a
    1f18:	93 85       	ldd	r25, Z+11	; 0x0b
    1f1a:	01 96       	adiw	r24, 0x01	; 1
    1f1c:	93 87       	std	Z+11, r25	; 0x0b
    1f1e:	82 87       	std	Z+10, r24	; 0x0a
			static inline void SetGlobalInterruptMask(const uint_reg_t GlobalIntState)
			{
				GCC_MEMORY_BARRIER();

				#if (ARCH == ARCH_AVR8)
				SREG = GlobalIntState;
    1f20:	2f bf       	out	0x3f, r18	; 63
				  __builtin_csrf(AVR32_SR_GM_OFFSET);
				#elif (ARCH == ARCH_XMEGA)
				SREG = GlobalIntState;
				#endif

				GCC_MEMORY_BARRIER();
    1f22:	d3 c0       	rjmp	.+422    	; 0x20ca <envieUSB_dado+0x4ac>
			}
		else if (word > 100) 
    1f24:	25 36       	cpi	r18, 0x65	; 101
    1f26:	31 05       	cpc	r19, r1
    1f28:	0c f4       	brge	.+2      	; 0x1f2c <envieUSB_dado+0x30e>
    1f2a:	6a c0       	rjmp	.+212    	; 0x2000 <envieUSB_dado+0x3e2>
		static inline void RingBuffer_Insert(RingBuffer_t* Buffer,
		                                     const uint8_t Data) ATTR_NON_NULL_PTR_ARG(1);
		static inline void RingBuffer_Insert(RingBuffer_t* Buffer,
		                                     const uint8_t Data)
		{
			GCC_FORCE_POINTER_ACCESS(Buffer);
    1f2c:	ea ed       	ldi	r30, 0xDA	; 218
    1f2e:	f1 e0       	ldi	r31, 0x01	; 1

			*Buffer->In = Data;
    1f30:	c0 81       	ld	r28, Z
    1f32:	d1 81       	ldd	r29, Z+1	; 0x01
			{
				RingBuffer_Insert(&USB_DadosParaEnviar_pt,'0' + (word / 100));					/* centena */
    1f34:	c9 01       	movw	r24, r18
    1f36:	64 e6       	ldi	r22, 0x64	; 100
    1f38:	70 e0       	ldi	r23, 0x00	; 0
    1f3a:	41 d3       	rcall	.+1666   	; 0x25be <__divmodhi4>
    1f3c:	60 5d       	subi	r22, 0xD0	; 208
    1f3e:	68 83       	st	Y, r22

			if (++Buffer->In == Buffer->End)
    1f40:	80 81       	ld	r24, Z
    1f42:	91 81       	ldd	r25, Z+1	; 0x01
    1f44:	01 96       	adiw	r24, 0x01	; 1
    1f46:	91 83       	std	Z+1, r25	; 0x01
    1f48:	80 83       	st	Z, r24
    1f4a:	46 81       	ldd	r20, Z+6	; 0x06
    1f4c:	57 81       	ldd	r21, Z+7	; 0x07
    1f4e:	84 17       	cp	r24, r20
    1f50:	95 07       	cpc	r25, r21
    1f52:	21 f4       	brne	.+8      	; 0x1f5c <envieUSB_dado+0x33e>
			  Buffer->In = Buffer->Start;
    1f54:	84 81       	ldd	r24, Z+4	; 0x04
    1f56:	95 81       	ldd	r25, Z+5	; 0x05
    1f58:	91 83       	std	Z+1, r25	; 0x01
    1f5a:	80 83       	st	Z, r24
			static inline uint_reg_t GetGlobalInterruptMask(void)
			{
				GCC_MEMORY_BARRIER();

				#if (ARCH == ARCH_AVR8)
				return SREG;
    1f5c:	4f b7       	in	r20, 0x3f	; 63
			static inline void GlobalInterruptDisable(void)
			{
				GCC_MEMORY_BARRIER();

				#if (ARCH == ARCH_AVR8)
				cli();
    1f5e:	f8 94       	cli

			uint_reg_t CurrentGlobalInt = GetGlobalInterruptMask();
			GlobalInterruptDisable();

			Buffer->Count++;
    1f60:	82 85       	ldd	r24, Z+10	; 0x0a
    1f62:	93 85       	ldd	r25, Z+11	; 0x0b
    1f64:	01 96       	adiw	r24, 0x01	; 1
    1f66:	93 87       	std	Z+11, r25	; 0x0b
    1f68:	82 87       	std	Z+10, r24	; 0x0a
			static inline void SetGlobalInterruptMask(const uint_reg_t GlobalIntState)
			{
				GCC_MEMORY_BARRIER();

				#if (ARCH == ARCH_AVR8)
				SREG = GlobalIntState;
    1f6a:	4f bf       	out	0x3f, r20	; 63
				word %= 100;
    1f6c:	c9 01       	movw	r24, r18
    1f6e:	64 e6       	ldi	r22, 0x64	; 100
    1f70:	70 e0       	ldi	r23, 0x00	; 0
    1f72:	25 d3       	rcall	.+1610   	; 0x25be <__divmodhi4>
    1f74:	9c 01       	movw	r18, r24
		static inline void RingBuffer_Insert(RingBuffer_t* Buffer,
		                                     const uint8_t Data) ATTR_NON_NULL_PTR_ARG(1);
		static inline void RingBuffer_Insert(RingBuffer_t* Buffer,
		                                     const uint8_t Data)
		{
			GCC_FORCE_POINTER_ACCESS(Buffer);
    1f76:	ea ed       	ldi	r30, 0xDA	; 218
    1f78:	f1 e0       	ldi	r31, 0x01	; 1

			*Buffer->In = Data;
    1f7a:	00 81       	ld	r16, Z
    1f7c:	11 81       	ldd	r17, Z+1	; 0x01
				RingBuffer_Insert(&USB_DadosParaEnviar_pt,'0' + ((word / 10) % 10));            /* dezena */
    1f7e:	ca e0       	ldi	r28, 0x0A	; 10
    1f80:	d0 e0       	ldi	r29, 0x00	; 0
    1f82:	be 01       	movw	r22, r28
    1f84:	1c d3       	rcall	.+1592   	; 0x25be <__divmodhi4>
    1f86:	cb 01       	movw	r24, r22
    1f88:	be 01       	movw	r22, r28
    1f8a:	19 d3       	rcall	.+1586   	; 0x25be <__divmodhi4>
    1f8c:	80 5d       	subi	r24, 0xD0	; 208
    1f8e:	d8 01       	movw	r26, r16
    1f90:	8c 93       	st	X, r24

			if (++Buffer->In == Buffer->End)
    1f92:	80 81       	ld	r24, Z
    1f94:	91 81       	ldd	r25, Z+1	; 0x01
    1f96:	01 96       	adiw	r24, 0x01	; 1
    1f98:	91 83       	std	Z+1, r25	; 0x01
    1f9a:	80 83       	st	Z, r24
    1f9c:	46 81       	ldd	r20, Z+6	; 0x06
    1f9e:	57 81       	ldd	r21, Z+7	; 0x07
    1fa0:	84 17       	cp	r24, r20
    1fa2:	95 07       	cpc	r25, r21
    1fa4:	21 f4       	brne	.+8      	; 0x1fae <envieUSB_dado+0x390>
			  Buffer->In = Buffer->Start;
    1fa6:	84 81       	ldd	r24, Z+4	; 0x04
    1fa8:	95 81       	ldd	r25, Z+5	; 0x05
    1faa:	91 83       	std	Z+1, r25	; 0x01
    1fac:	80 83       	st	Z, r24
			static inline uint_reg_t GetGlobalInterruptMask(void)
			{
				GCC_MEMORY_BARRIER();

				#if (ARCH == ARCH_AVR8)
				return SREG;
    1fae:	4f b7       	in	r20, 0x3f	; 63
			static inline void GlobalInterruptDisable(void)
			{
				GCC_MEMORY_BARRIER();

				#if (ARCH == ARCH_AVR8)
				cli();
    1fb0:	f8 94       	cli

			uint_reg_t CurrentGlobalInt = GetGlobalInterruptMask();
			GlobalInterruptDisable();

			Buffer->Count++;
    1fb2:	82 85       	ldd	r24, Z+10	; 0x0a
    1fb4:	93 85       	ldd	r25, Z+11	; 0x0b
    1fb6:	01 96       	adiw	r24, 0x01	; 1
    1fb8:	93 87       	std	Z+11, r25	; 0x0b
    1fba:	82 87       	std	Z+10, r24	; 0x0a
			static inline void SetGlobalInterruptMask(const uint_reg_t GlobalIntState)
			{
				GCC_MEMORY_BARRIER();

				#if (ARCH == ARCH_AVR8)
				SREG = GlobalIntState;
    1fbc:	4f bf       	out	0x3f, r20	; 63
		static inline void RingBuffer_Insert(RingBuffer_t* Buffer,
		                                     const uint8_t Data) ATTR_NON_NULL_PTR_ARG(1);
		static inline void RingBuffer_Insert(RingBuffer_t* Buffer,
		                                     const uint8_t Data)
		{
			GCC_FORCE_POINTER_ACCESS(Buffer);
    1fbe:	ea ed       	ldi	r30, 0xDA	; 218
    1fc0:	f1 e0       	ldi	r31, 0x01	; 1

			*Buffer->In = Data;
    1fc2:	c0 81       	ld	r28, Z
    1fc4:	d1 81       	ldd	r29, Z+1	; 0x01
				RingBuffer_Insert(&USB_DadosParaEnviar_pt,'0' + (word % 10));                   /* unidade */
    1fc6:	c9 01       	movw	r24, r18
    1fc8:	6a e0       	ldi	r22, 0x0A	; 10
    1fca:	70 e0       	ldi	r23, 0x00	; 0
    1fcc:	f8 d2       	rcall	.+1520   	; 0x25be <__divmodhi4>
    1fce:	80 5d       	subi	r24, 0xD0	; 208
    1fd0:	88 83       	st	Y, r24

			if (++Buffer->In == Buffer->End)
    1fd2:	80 81       	ld	r24, Z
    1fd4:	91 81       	ldd	r25, Z+1	; 0x01
    1fd6:	01 96       	adiw	r24, 0x01	; 1
    1fd8:	91 83       	std	Z+1, r25	; 0x01
    1fda:	80 83       	st	Z, r24
    1fdc:	26 81       	ldd	r18, Z+6	; 0x06
    1fde:	37 81       	ldd	r19, Z+7	; 0x07
    1fe0:	82 17       	cp	r24, r18
    1fe2:	93 07       	cpc	r25, r19
    1fe4:	21 f4       	brne	.+8      	; 0x1fee <envieUSB_dado+0x3d0>
			  Buffer->In = Buffer->Start;
    1fe6:	84 81       	ldd	r24, Z+4	; 0x04
    1fe8:	95 81       	ldd	r25, Z+5	; 0x05
    1fea:	91 83       	std	Z+1, r25	; 0x01
    1fec:	80 83       	st	Z, r24
			static inline uint_reg_t GetGlobalInterruptMask(void)
			{
				GCC_MEMORY_BARRIER();

				#if (ARCH == ARCH_AVR8)
				return SREG;
    1fee:	2f b7       	in	r18, 0x3f	; 63
			static inline void GlobalInterruptDisable(void)
			{
				GCC_MEMORY_BARRIER();

				#if (ARCH == ARCH_AVR8)
				cli();
    1ff0:	f8 94       	cli

			uint_reg_t CurrentGlobalInt = GetGlobalInterruptMask();
			GlobalInterruptDisable();

			Buffer->Count++;
    1ff2:	82 85       	ldd	r24, Z+10	; 0x0a
    1ff4:	93 85       	ldd	r25, Z+11	; 0x0b
    1ff6:	01 96       	adiw	r24, 0x01	; 1
    1ff8:	93 87       	std	Z+11, r25	; 0x0b
    1ffa:	82 87       	std	Z+10, r24	; 0x0a
			static inline void SetGlobalInterruptMask(const uint_reg_t GlobalIntState)
			{
				GCC_MEMORY_BARRIER();

				#if (ARCH == ARCH_AVR8)
				SREG = GlobalIntState;
    1ffc:	2f bf       	out	0x3f, r18	; 63
				  __builtin_csrf(AVR32_SR_GM_OFFSET);
				#elif (ARCH == ARCH_XMEGA)
				SREG = GlobalIntState;
				#endif

				GCC_MEMORY_BARRIER();
    1ffe:	65 c0       	rjmp	.+202    	; 0x20ca <envieUSB_dado+0x4ac>
			}
		else if (word > 10)
    2000:	2b 30       	cpi	r18, 0x0B	; 11
    2002:	31 05       	cpc	r19, r1
    2004:	0c f4       	brge	.+2      	; 0x2008 <envieUSB_dado+0x3ea>
    2006:	45 c0       	rjmp	.+138    	; 0x2092 <envieUSB_dado+0x474>
		static inline void RingBuffer_Insert(RingBuffer_t* Buffer,
		                                     const uint8_t Data) ATTR_NON_NULL_PTR_ARG(1);
		static inline void RingBuffer_Insert(RingBuffer_t* Buffer,
		                                     const uint8_t Data)
		{
			GCC_FORCE_POINTER_ACCESS(Buffer);
    2008:	ea ed       	ldi	r30, 0xDA	; 218
    200a:	f1 e0       	ldi	r31, 0x01	; 1

			*Buffer->In = Data;
    200c:	c0 81       	ld	r28, Z
    200e:	d1 81       	ldd	r29, Z+1	; 0x01
			{
				RingBuffer_Insert(&USB_DadosParaEnviar_pt,'0' + (word / 10));					/* dezena */
    2010:	c9 01       	movw	r24, r18
    2012:	6a e0       	ldi	r22, 0x0A	; 10
    2014:	70 e0       	ldi	r23, 0x00	; 0
    2016:	d3 d2       	rcall	.+1446   	; 0x25be <__divmodhi4>
    2018:	60 5d       	subi	r22, 0xD0	; 208
    201a:	68 83       	st	Y, r22

			if (++Buffer->In == Buffer->End)
    201c:	80 81       	ld	r24, Z
    201e:	91 81       	ldd	r25, Z+1	; 0x01
    2020:	01 96       	adiw	r24, 0x01	; 1
    2022:	91 83       	std	Z+1, r25	; 0x01
    2024:	80 83       	st	Z, r24
    2026:	46 81       	ldd	r20, Z+6	; 0x06
    2028:	57 81       	ldd	r21, Z+7	; 0x07
    202a:	84 17       	cp	r24, r20
    202c:	95 07       	cpc	r25, r21
    202e:	21 f4       	brne	.+8      	; 0x2038 <envieUSB_dado+0x41a>
			  Buffer->In = Buffer->Start;
    2030:	84 81       	ldd	r24, Z+4	; 0x04
    2032:	95 81       	ldd	r25, Z+5	; 0x05
    2034:	91 83       	std	Z+1, r25	; 0x01
    2036:	80 83       	st	Z, r24
			static inline uint_reg_t GetGlobalInterruptMask(void)
			{
				GCC_MEMORY_BARRIER();

				#if (ARCH == ARCH_AVR8)
				return SREG;
    2038:	4f b7       	in	r20, 0x3f	; 63
			static inline void GlobalInterruptDisable(void)
			{
				GCC_MEMORY_BARRIER();

				#if (ARCH == ARCH_AVR8)
				cli();
    203a:	f8 94       	cli

			uint_reg_t CurrentGlobalInt = GetGlobalInterruptMask();
			GlobalInterruptDisable();

			Buffer->Count++;
    203c:	82 85       	ldd	r24, Z+10	; 0x0a
    203e:	93 85       	ldd	r25, Z+11	; 0x0b
    2040:	01 96       	adiw	r24, 0x01	; 1
    2042:	93 87       	std	Z+11, r25	; 0x0b
    2044:	82 87       	std	Z+10, r24	; 0x0a
			static inline void SetGlobalInterruptMask(const uint_reg_t GlobalIntState)
			{
				GCC_MEMORY_BARRIER();

				#if (ARCH == ARCH_AVR8)
				SREG = GlobalIntState;
    2046:	4f bf       	out	0x3f, r20	; 63
		static inline void RingBuffer_Insert(RingBuffer_t* Buffer,
		                                     const uint8_t Data) ATTR_NON_NULL_PTR_ARG(1);
		static inline void RingBuffer_Insert(RingBuffer_t* Buffer,
		                                     const uint8_t Data)
		{
			GCC_FORCE_POINTER_ACCESS(Buffer);
    2048:	ea ed       	ldi	r30, 0xDA	; 218
    204a:	f1 e0       	ldi	r31, 0x01	; 1

			*Buffer->In = Data;
    204c:	00 81       	ld	r16, Z
    204e:	11 81       	ldd	r17, Z+1	; 0x01
				word %= 10;
    2050:	ca e0       	ldi	r28, 0x0A	; 10
    2052:	d0 e0       	ldi	r29, 0x00	; 0
    2054:	c9 01       	movw	r24, r18
    2056:	be 01       	movw	r22, r28
    2058:	b2 d2       	rcall	.+1380   	; 0x25be <__divmodhi4>
				RingBuffer_Insert(&USB_DadosParaEnviar_pt,'0' + (word % 10));					/* unidade */
    205a:	be 01       	movw	r22, r28
    205c:	b0 d2       	rcall	.+1376   	; 0x25be <__divmodhi4>
    205e:	80 5d       	subi	r24, 0xD0	; 208
    2060:	d8 01       	movw	r26, r16
    2062:	8c 93       	st	X, r24

			if (++Buffer->In == Buffer->End)
    2064:	80 81       	ld	r24, Z
    2066:	91 81       	ldd	r25, Z+1	; 0x01
    2068:	01 96       	adiw	r24, 0x01	; 1
    206a:	91 83       	std	Z+1, r25	; 0x01
    206c:	80 83       	st	Z, r24
    206e:	26 81       	ldd	r18, Z+6	; 0x06
    2070:	37 81       	ldd	r19, Z+7	; 0x07
    2072:	82 17       	cp	r24, r18
    2074:	93 07       	cpc	r25, r19
    2076:	21 f4       	brne	.+8      	; 0x2080 <envieUSB_dado+0x462>
			  Buffer->In = Buffer->Start;
    2078:	84 81       	ldd	r24, Z+4	; 0x04
    207a:	95 81       	ldd	r25, Z+5	; 0x05
    207c:	91 83       	std	Z+1, r25	; 0x01
    207e:	80 83       	st	Z, r24
			static inline uint_reg_t GetGlobalInterruptMask(void)
			{
				GCC_MEMORY_BARRIER();

				#if (ARCH == ARCH_AVR8)
				return SREG;
    2080:	2f b7       	in	r18, 0x3f	; 63
			static inline void GlobalInterruptDisable(void)
			{
				GCC_MEMORY_BARRIER();

				#if (ARCH == ARCH_AVR8)
				cli();
    2082:	f8 94       	cli

			uint_reg_t CurrentGlobalInt = GetGlobalInterruptMask();
			GlobalInterruptDisable();

			Buffer->Count++;
    2084:	82 85       	ldd	r24, Z+10	; 0x0a
    2086:	93 85       	ldd	r25, Z+11	; 0x0b
    2088:	01 96       	adiw	r24, 0x01	; 1
    208a:	93 87       	std	Z+11, r25	; 0x0b
    208c:	82 87       	std	Z+10, r24	; 0x0a
			static inline void SetGlobalInterruptMask(const uint_reg_t GlobalIntState)
			{
				GCC_MEMORY_BARRIER();

				#if (ARCH == ARCH_AVR8)
				SREG = GlobalIntState;
    208e:	2f bf       	out	0x3f, r18	; 63
				  __builtin_csrf(AVR32_SR_GM_OFFSET);
				#elif (ARCH == ARCH_XMEGA)
				SREG = GlobalIntState;
				#endif

				GCC_MEMORY_BARRIER();
    2090:	1c c0       	rjmp	.+56     	; 0x20ca <envieUSB_dado+0x4ac>
		static inline void RingBuffer_Insert(RingBuffer_t* Buffer,
		                                     const uint8_t Data) ATTR_NON_NULL_PTR_ARG(1);
		static inline void RingBuffer_Insert(RingBuffer_t* Buffer,
		                                     const uint8_t Data)
		{
			GCC_FORCE_POINTER_ACCESS(Buffer);
    2092:	ea ed       	ldi	r30, 0xDA	; 218
    2094:	f1 e0       	ldi	r31, 0x01	; 1

			*Buffer->In = Data;
    2096:	a0 81       	ld	r26, Z
    2098:	b1 81       	ldd	r27, Z+1	; 0x01
			}
		else RingBuffer_Insert(&USB_DadosParaEnviar_pt,'0' + word);								/* unidade */
    209a:	20 5d       	subi	r18, 0xD0	; 208
    209c:	2c 93       	st	X, r18

			if (++Buffer->In == Buffer->End)
    209e:	80 81       	ld	r24, Z
    20a0:	91 81       	ldd	r25, Z+1	; 0x01
    20a2:	01 96       	adiw	r24, 0x01	; 1
    20a4:	91 83       	std	Z+1, r25	; 0x01
    20a6:	80 83       	st	Z, r24
    20a8:	26 81       	ldd	r18, Z+6	; 0x06
    20aa:	37 81       	ldd	r19, Z+7	; 0x07
    20ac:	82 17       	cp	r24, r18
    20ae:	93 07       	cpc	r25, r19
    20b0:	21 f4       	brne	.+8      	; 0x20ba <envieUSB_dado+0x49c>
			  Buffer->In = Buffer->Start;
    20b2:	84 81       	ldd	r24, Z+4	; 0x04
    20b4:	95 81       	ldd	r25, Z+5	; 0x05
    20b6:	91 83       	std	Z+1, r25	; 0x01
    20b8:	80 83       	st	Z, r24
			static inline uint_reg_t GetGlobalInterruptMask(void)
			{
				GCC_MEMORY_BARRIER();

				#if (ARCH == ARCH_AVR8)
				return SREG;
    20ba:	2f b7       	in	r18, 0x3f	; 63
			static inline void GlobalInterruptDisable(void)
			{
				GCC_MEMORY_BARRIER();

				#if (ARCH == ARCH_AVR8)
				cli();
    20bc:	f8 94       	cli

			uint_reg_t CurrentGlobalInt = GetGlobalInterruptMask();
			GlobalInterruptDisable();

			Buffer->Count++;
    20be:	82 85       	ldd	r24, Z+10	; 0x0a
    20c0:	93 85       	ldd	r25, Z+11	; 0x0b
    20c2:	01 96       	adiw	r24, 0x01	; 1
    20c4:	93 87       	std	Z+11, r25	; 0x0b
    20c6:	82 87       	std	Z+10, r24	; 0x0a
			static inline void SetGlobalInterruptMask(const uint_reg_t GlobalIntState)
			{
				GCC_MEMORY_BARRIER();

				#if (ARCH == ARCH_AVR8)
				SREG = GlobalIntState;
    20c8:	2f bf       	out	0x3f, r18	; 63
		enviarUSB();
    20ca:	75 da       	rcall	.-2838   	; 0x15b6 <enviarUSB>
	}
}
    20cc:	df 91       	pop	r29
    20ce:	cf 91       	pop	r28
    20d0:	1f 91       	pop	r17
    20d2:	0f 91       	pop	r16
    20d4:	08 95       	ret

000020d6 <envieUSB_nl>:
		static inline void RingBuffer_Insert(RingBuffer_t* Buffer,
		                                     const uint8_t Data) ATTR_NON_NULL_PTR_ARG(1);
		static inline void RingBuffer_Insert(RingBuffer_t* Buffer,
		                                     const uint8_t Data)
		{
			GCC_FORCE_POINTER_ACCESS(Buffer);
    20d6:	ea ed       	ldi	r30, 0xDA	; 218
    20d8:	f1 e0       	ldi	r31, 0x01	; 1

			*Buffer->In = Data;
    20da:	a0 81       	ld	r26, Z
    20dc:	b1 81       	ldd	r27, Z+1	; 0x01
    20de:	8d e0       	ldi	r24, 0x0D	; 13
    20e0:	8c 93       	st	X, r24

			if (++Buffer->In == Buffer->End)
    20e2:	80 81       	ld	r24, Z
    20e4:	91 81       	ldd	r25, Z+1	; 0x01
    20e6:	01 96       	adiw	r24, 0x01	; 1
    20e8:	91 83       	std	Z+1, r25	; 0x01
    20ea:	80 83       	st	Z, r24
    20ec:	26 81       	ldd	r18, Z+6	; 0x06
    20ee:	37 81       	ldd	r19, Z+7	; 0x07
    20f0:	82 17       	cp	r24, r18
    20f2:	93 07       	cpc	r25, r19
    20f4:	21 f4       	brne	.+8      	; 0x20fe <envieUSB_nl+0x28>
			  Buffer->In = Buffer->Start;
    20f6:	84 81       	ldd	r24, Z+4	; 0x04
    20f8:	95 81       	ldd	r25, Z+5	; 0x05
    20fa:	91 83       	std	Z+1, r25	; 0x01
    20fc:	80 83       	st	Z, r24
			static inline uint_reg_t GetGlobalInterruptMask(void)
			{
				GCC_MEMORY_BARRIER();

				#if (ARCH == ARCH_AVR8)
				return SREG;
    20fe:	2f b7       	in	r18, 0x3f	; 63
			static inline void GlobalInterruptDisable(void)
			{
				GCC_MEMORY_BARRIER();

				#if (ARCH == ARCH_AVR8)
				cli();
    2100:	f8 94       	cli

			uint_reg_t CurrentGlobalInt = GetGlobalInterruptMask();
			GlobalInterruptDisable();

			Buffer->Count++;
    2102:	82 85       	ldd	r24, Z+10	; 0x0a
    2104:	93 85       	ldd	r25, Z+11	; 0x0b
    2106:	01 96       	adiw	r24, 0x01	; 1
    2108:	93 87       	std	Z+11, r25	; 0x0b
    210a:	82 87       	std	Z+10, r24	; 0x0a
			static inline void SetGlobalInterruptMask(const uint_reg_t GlobalIntState)
			{
				GCC_MEMORY_BARRIER();

				#if (ARCH == ARCH_AVR8)
				SREG = GlobalIntState;
    210c:	2f bf       	out	0x3f, r18	; 63
		static inline void RingBuffer_Insert(RingBuffer_t* Buffer,
		                                     const uint8_t Data) ATTR_NON_NULL_PTR_ARG(1);
		static inline void RingBuffer_Insert(RingBuffer_t* Buffer,
		                                     const uint8_t Data)
		{
			GCC_FORCE_POINTER_ACCESS(Buffer);
    210e:	ea ed       	ldi	r30, 0xDA	; 218
    2110:	f1 e0       	ldi	r31, 0x01	; 1

			*Buffer->In = Data;
    2112:	a0 81       	ld	r26, Z
    2114:	b1 81       	ldd	r27, Z+1	; 0x01
    2116:	8a e0       	ldi	r24, 0x0A	; 10
    2118:	8c 93       	st	X, r24

			if (++Buffer->In == Buffer->End)
    211a:	80 81       	ld	r24, Z
    211c:	91 81       	ldd	r25, Z+1	; 0x01
    211e:	01 96       	adiw	r24, 0x01	; 1
    2120:	91 83       	std	Z+1, r25	; 0x01
    2122:	80 83       	st	Z, r24
    2124:	26 81       	ldd	r18, Z+6	; 0x06
    2126:	37 81       	ldd	r19, Z+7	; 0x07
    2128:	82 17       	cp	r24, r18
    212a:	93 07       	cpc	r25, r19
    212c:	21 f4       	brne	.+8      	; 0x2136 <__stack+0x37>
			  Buffer->In = Buffer->Start;
    212e:	84 81       	ldd	r24, Z+4	; 0x04
    2130:	95 81       	ldd	r25, Z+5	; 0x05
    2132:	91 83       	std	Z+1, r25	; 0x01
    2134:	80 83       	st	Z, r24
			static inline uint_reg_t GetGlobalInterruptMask(void)
			{
				GCC_MEMORY_BARRIER();

				#if (ARCH == ARCH_AVR8)
				return SREG;
    2136:	2f b7       	in	r18, 0x3f	; 63
			static inline void GlobalInterruptDisable(void)
			{
				GCC_MEMORY_BARRIER();

				#if (ARCH == ARCH_AVR8)
				cli();
    2138:	f8 94       	cli

			uint_reg_t CurrentGlobalInt = GetGlobalInterruptMask();
			GlobalInterruptDisable();

			Buffer->Count++;
    213a:	82 85       	ldd	r24, Z+10	; 0x0a
    213c:	93 85       	ldd	r25, Z+11	; 0x0b
    213e:	01 96       	adiw	r24, 0x01	; 1
    2140:	93 87       	std	Z+11, r25	; 0x0b
    2142:	82 87       	std	Z+10, r24	; 0x0a
			static inline void SetGlobalInterruptMask(const uint_reg_t GlobalIntState)
			{
				GCC_MEMORY_BARRIER();

				#if (ARCH == ARCH_AVR8)
				SREG = GlobalIntState;
    2144:	2f bf       	out	0x3f, r18	; 63

void envieUSB_nl()
{
	RingBuffer_Insert(&USB_DadosParaEnviar_pt, '\r');
	RingBuffer_Insert(&USB_DadosParaEnviar_pt, '\n');
	enviarUSB();
    2146:	37 ca       	rjmp	.-2962   	; 0x15b6 <enviarUSB>
    2148:	08 95       	ret

0000214a <enviarDados>:
}

void enviarDados()
{
	// IDs Sensores/Atuadores
	envieUSB_Char('A');
    214a:	81 e4       	ldi	r24, 0x41	; 65
    214c:	cf db       	rcall	.-2146   	; 0x18ec <envieUSB_Char>
	envieUSB_dado(registradores[s1ID]);
    214e:	80 91 7e 02 	lds	r24, 0x027E
    2152:	90 91 7f 02 	lds	r25, 0x027F
    2156:	63 dd       	rcall	.-1338   	; 0x1c1e <envieUSB_dado>
	envieUSB_nl();
    2158:	be df       	rcall	.-132    	; 0x20d6 <envieUSB_nl>
	
	envieUSB_Char('B');
    215a:	82 e4       	ldi	r24, 0x42	; 66
    215c:	c7 db       	rcall	.-2162   	; 0x18ec <envieUSB_Char>
	envieUSB_dado(registradores[s2ID]);
    215e:	80 91 74 02 	lds	r24, 0x0274
    2162:	90 91 75 02 	lds	r25, 0x0275
    2166:	5b dd       	rcall	.-1354   	; 0x1c1e <envieUSB_dado>
	envieUSB_nl();
    2168:	b6 df       	rcall	.-148    	; 0x20d6 <envieUSB_nl>
		
	envieUSB_Char('C');
    216a:	83 e4       	ldi	r24, 0x43	; 67
    216c:	bf db       	rcall	.-2178   	; 0x18ec <envieUSB_Char>
	envieUSB_dado(registradores[s3ID]);
    216e:	80 91 82 02 	lds	r24, 0x0282
    2172:	90 91 83 02 	lds	r25, 0x0283
    2176:	53 dd       	rcall	.-1370   	; 0x1c1e <envieUSB_dado>
	envieUSB_nl();
    2178:	ae df       	rcall	.-164    	; 0x20d6 <envieUSB_nl>
	
	envieUSB_Char('D');
    217a:	84 e4       	ldi	r24, 0x44	; 68
    217c:	b7 db       	rcall	.-2194   	; 0x18ec <envieUSB_Char>
	envieUSB_dado(registradores[s4ID]);
    217e:	80 91 78 02 	lds	r24, 0x0278
    2182:	90 91 79 02 	lds	r25, 0x0279
    2186:	4b dd       	rcall	.-1386   	; 0x1c1e <envieUSB_dado>
	envieUSB_nl();
    2188:	a6 df       	rcall	.-180    	; 0x20d6 <envieUSB_nl>
	
	envieUSB_Char('E');  // para ser compativel com o Legal 2.25
    218a:	85 e4       	ldi	r24, 0x45	; 69
    218c:	af db       	rcall	.-2210   	; 0x18ec <envieUSB_Char>
	envieUSB_dado(0);
    218e:	80 e0       	ldi	r24, 0x00	; 0
    2190:	90 e0       	ldi	r25, 0x00	; 0
    2192:	45 dd       	rcall	.-1398   	; 0x1c1e <envieUSB_dado>
	envieUSB_nl();
    2194:	a0 df       	rcall	.-192    	; 0x20d6 <envieUSB_nl>
	
	envieUSB_Char('F');  // para ser compativel com o Legal 2.25
    2196:	86 e4       	ldi	r24, 0x46	; 70
    2198:	a9 db       	rcall	.-2222   	; 0x18ec <envieUSB_Char>
	envieUSB_dado(0);
    219a:	80 e0       	ldi	r24, 0x00	; 0
    219c:	90 e0       	ldi	r25, 0x00	; 0
    219e:	3f dd       	rcall	.-1410   	; 0x1c1e <envieUSB_dado>
	envieUSB_nl();
    21a0:	9a df       	rcall	.-204    	; 0x20d6 <envieUSB_nl>
	
	envieUSB_Char('G');  // para ser compativel com o Legal 2.25
    21a2:	87 e4       	ldi	r24, 0x47	; 71
    21a4:	a3 db       	rcall	.-2234   	; 0x18ec <envieUSB_Char>
	envieUSB_dado(0);
    21a6:	80 e0       	ldi	r24, 0x00	; 0
    21a8:	90 e0       	ldi	r25, 0x00	; 0
    21aa:	39 dd       	rcall	.-1422   	; 0x1c1e <envieUSB_dado>
	envieUSB_nl();
    21ac:	94 df       	rcall	.-216    	; 0x20d6 <envieUSB_nl>
	
	envieUSB_Char('H'); // para ser compativel com o Legal 2.25
    21ae:	88 e4       	ldi	r24, 0x48	; 72
    21b0:	9d db       	rcall	.-2246   	; 0x18ec <envieUSB_Char>
	envieUSB_dado(0);
    21b2:	80 e0       	ldi	r24, 0x00	; 0
    21b4:	90 e0       	ldi	r25, 0x00	; 0
    21b6:	33 dd       	rcall	.-1434   	; 0x1c1e <envieUSB_dado>
	envieUSB_nl();
    21b8:	8e df       	rcall	.-228    	; 0x20d6 <envieUSB_nl>
	
	// IDs Servos
	envieUSB_Char('I');
    21ba:	89 e4       	ldi	r24, 0x49	; 73
    21bc:	97 db       	rcall	.-2258   	; 0x18ec <envieUSB_Char>
	envieUSB_dado(registradores[servo1ID]);
    21be:	80 91 84 02 	lds	r24, 0x0284
    21c2:	90 91 85 02 	lds	r25, 0x0285
    21c6:	2b dd       	rcall	.-1450   	; 0x1c1e <envieUSB_dado>
	envieUSB_nl();
    21c8:	86 df       	rcall	.-244    	; 0x20d6 <envieUSB_nl>
	
	envieUSB_Char('J');
    21ca:	8a e4       	ldi	r24, 0x4A	; 74
    21cc:	8f db       	rcall	.-2274   	; 0x18ec <envieUSB_Char>
	envieUSB_dado(registradores[servo2ID]);
    21ce:	80 91 8e 02 	lds	r24, 0x028E
    21d2:	90 91 8f 02 	lds	r25, 0x028F
    21d6:	23 dd       	rcall	.-1466   	; 0x1c1e <envieUSB_dado>
	envieUSB_nl();
    21d8:	7e df       	rcall	.-260    	; 0x20d6 <envieUSB_nl>
	
	envieUSB_Char('K');  // para ser compativel com o Legal 2.25
    21da:	8b e4       	ldi	r24, 0x4B	; 75
    21dc:	87 db       	rcall	.-2290   	; 0x18ec <envieUSB_Char>
	envieUSB_dado(0);
    21de:	80 e0       	ldi	r24, 0x00	; 0
    21e0:	90 e0       	ldi	r25, 0x00	; 0
    21e2:	1d dd       	rcall	.-1478   	; 0x1c1e <envieUSB_dado>
	envieUSB_nl();
    21e4:	78 df       	rcall	.-272    	; 0x20d6 <envieUSB_nl>
	
	envieUSB_Char('L'); // para ser compativel com o Legal 2.25
    21e6:	8c e4       	ldi	r24, 0x4C	; 76
    21e8:	81 db       	rcall	.-2302   	; 0x18ec <envieUSB_Char>
	envieUSB_dado(0);
    21ea:	80 e0       	ldi	r24, 0x00	; 0
    21ec:	90 e0       	ldi	r25, 0x00	; 0
    21ee:	17 dd       	rcall	.-1490   	; 0x1c1e <envieUSB_dado>
	envieUSB_nl();
    21f0:	72 df       	rcall	.-284    	; 0x20d6 <envieUSB_nl>
	
	// IDs Motores
	envieUSB_Char('M');
    21f2:	8d e4       	ldi	r24, 0x4D	; 77
    21f4:	7b db       	rcall	.-2314   	; 0x18ec <envieUSB_Char>
	envieUSB_dado(registradores[meID]);
    21f6:	80 91 86 02 	lds	r24, 0x0286
    21fa:	90 91 87 02 	lds	r25, 0x0287
    21fe:	0f dd       	rcall	.-1506   	; 0x1c1e <envieUSB_dado>
	envieUSB_nl();
    2200:	6a df       	rcall	.-300    	; 0x20d6 <envieUSB_nl>
	
	envieUSB_Char('N');
    2202:	8e e4       	ldi	r24, 0x4E	; 78
    2204:	73 db       	rcall	.-2330   	; 0x18ec <envieUSB_Char>
	envieUSB_dado(registradores[mdID]);
    2206:	80 91 8c 02 	lds	r24, 0x028C
    220a:	90 91 8d 02 	lds	r25, 0x028D
    220e:	07 dd       	rcall	.-1522   	; 0x1c1e <envieUSB_dado>
	envieUSB_nl();
    2210:	62 df       	rcall	.-316    	; 0x20d6 <envieUSB_nl>
	
	// Leituras dos Sensores/Atuadores
	envieUSB_Char('a');
    2212:	81 e6       	ldi	r24, 0x61	; 97
    2214:	6b db       	rcall	.-2346   	; 0x18ec <envieUSB_Char>
	envieUSB_dado(registradores[s1Valor]);
    2216:	80 91 7c 02 	lds	r24, 0x027C
    221a:	90 91 7d 02 	lds	r25, 0x027D
    221e:	ff dc       	rcall	.-1538   	; 0x1c1e <envieUSB_dado>
	envieUSB_nl();
    2220:	5a df       	rcall	.-332    	; 0x20d6 <envieUSB_nl>
	
	envieUSB_Char('b');
    2222:	82 e6       	ldi	r24, 0x62	; 98
    2224:	63 db       	rcall	.-2362   	; 0x18ec <envieUSB_Char>
	envieUSB_dado(registradores[s2Valor]);
    2226:	80 91 76 02 	lds	r24, 0x0276
    222a:	90 91 77 02 	lds	r25, 0x0277
    222e:	f7 dc       	rcall	.-1554   	; 0x1c1e <envieUSB_dado>
	envieUSB_nl();
    2230:	52 df       	rcall	.-348    	; 0x20d6 <envieUSB_nl>
	
	envieUSB_Char('c');
    2232:	83 e6       	ldi	r24, 0x63	; 99
    2234:	5b db       	rcall	.-2378   	; 0x18ec <envieUSB_Char>
	envieUSB_dado(registradores[s3Valor]);
    2236:	80 91 80 02 	lds	r24, 0x0280
    223a:	90 91 81 02 	lds	r25, 0x0281
    223e:	ef dc       	rcall	.-1570   	; 0x1c1e <envieUSB_dado>
	envieUSB_nl();
    2240:	4a df       	rcall	.-364    	; 0x20d6 <envieUSB_nl>
	
	envieUSB_Char('d');
    2242:	84 e6       	ldi	r24, 0x64	; 100
    2244:	53 db       	rcall	.-2394   	; 0x18ec <envieUSB_Char>
	envieUSB_dado(registradores[s4Valor]);
    2246:	80 91 7a 02 	lds	r24, 0x027A
    224a:	90 91 7b 02 	lds	r25, 0x027B
    224e:	e7 dc       	rcall	.-1586   	; 0x1c1e <envieUSB_dado>
	envieUSB_nl();
    2250:	42 df       	rcall	.-380    	; 0x20d6 <envieUSB_nl>
	
	envieUSB_Char('e');  // para ser compativel com o Legal 2.25
    2252:	85 e6       	ldi	r24, 0x65	; 101
    2254:	4b db       	rcall	.-2410   	; 0x18ec <envieUSB_Char>
	envieUSB_dado(0);
    2256:	80 e0       	ldi	r24, 0x00	; 0
    2258:	90 e0       	ldi	r25, 0x00	; 0
    225a:	e1 dc       	rcall	.-1598   	; 0x1c1e <envieUSB_dado>
	envieUSB_nl();
    225c:	3c df       	rcall	.-392    	; 0x20d6 <envieUSB_nl>
	
	envieUSB_Char('f');  // para ser compativel com o Legal 2.25
    225e:	86 e6       	ldi	r24, 0x66	; 102
    2260:	45 db       	rcall	.-2422   	; 0x18ec <envieUSB_Char>
	envieUSB_dado(0);
    2262:	80 e0       	ldi	r24, 0x00	; 0
    2264:	90 e0       	ldi	r25, 0x00	; 0
    2266:	db dc       	rcall	.-1610   	; 0x1c1e <envieUSB_dado>
	envieUSB_nl();
    2268:	36 df       	rcall	.-404    	; 0x20d6 <envieUSB_nl>
	
	envieUSB_Char('g');  // para ser compativel com o Legal 2.25
    226a:	87 e6       	ldi	r24, 0x67	; 103
    226c:	3f db       	rcall	.-2434   	; 0x18ec <envieUSB_Char>
	envieUSB_dado(0);
    226e:	80 e0       	ldi	r24, 0x00	; 0
    2270:	90 e0       	ldi	r25, 0x00	; 0
    2272:	d5 dc       	rcall	.-1622   	; 0x1c1e <envieUSB_dado>
	envieUSB_nl();
    2274:	30 df       	rcall	.-416    	; 0x20d6 <envieUSB_nl>
	
	envieUSB_Char('h'); // para ser compativel com o Legal 2.25
    2276:	88 e6       	ldi	r24, 0x68	; 104
    2278:	39 db       	rcall	.-2446   	; 0x18ec <envieUSB_Char>
	envieUSB_dado(0);
    227a:	80 e0       	ldi	r24, 0x00	; 0
    227c:	90 e0       	ldi	r25, 0x00	; 0
    227e:	cf dc       	rcall	.-1634   	; 0x1c1e <envieUSB_dado>
	envieUSB_nl();
    2280:	2a cf       	rjmp	.-428    	; 0x20d6 <envieUSB_nl>
    2282:	08 95       	ret

00002284 <palavraLida>:
			static inline uint_reg_t GetGlobalInterruptMask(void)
			{
				GCC_MEMORY_BARRIER();

				#if (ARCH == ARCH_AVR8)
				return SREG;
    2284:	8f b7       	in	r24, 0x3f	; 63
			static inline void GlobalInterruptDisable(void)
			{
				GCC_MEMORY_BARRIER();

				#if (ARCH == ARCH_AVR8)
				cli();
    2286:	f8 94       	cli
			uint16_t Count;

			uint_reg_t CurrentGlobalInt = GetGlobalInterruptMask();
			GlobalInterruptDisable();

			Count = Buffer->Count;
    2288:	20 91 70 02 	lds	r18, 0x0270
    228c:	30 91 71 02 	lds	r19, 0x0271
			static inline void SetGlobalInterruptMask(const uint_reg_t GlobalIntState)
			{
				GCC_MEMORY_BARRIER();

				#if (ARCH == ARCH_AVR8)
				SREG = GlobalIntState;
    2290:	8f bf       	out	0x3f, r24	; 63
{
	uint16_t BufferCount = RingBuffer_GetCount(&USB_DadosRecebidos_pt);
	uint8_t caracter;
		
	/* Se existem dados no buffer da USB ele será processsado aqui */
	while (BufferCount--)
    2292:	21 15       	cp	r18, r1
    2294:	31 05       	cpc	r19, r1
    2296:	d1 f1       	breq	.+116    	; 0x230c <palavraLida+0x88>
		 *  \return Next data element stored in the buffer.
		 */
		static inline uint8_t RingBuffer_Remove(RingBuffer_t* Buffer) ATTR_NON_NULL_PTR_ARG(1);
		static inline uint8_t RingBuffer_Remove(RingBuffer_t* Buffer)
		{
			GCC_FORCE_POINTER_ACCESS(Buffer);
    2298:	66 e6       	ldi	r22, 0x66	; 102
    229a:	72 e0       	ldi	r23, 0x02	; 2
		 *  \return Next data element stored in the buffer.
		 */
		static inline uint8_t RingBuffer_Peek(RingBuffer_t* const Buffer) ATTR_WARN_UNUSED_RESULT ATTR_NON_NULL_PTR_ARG(1);
		static inline uint8_t RingBuffer_Peek(RingBuffer_t* const Buffer)
		{
			return *Buffer->Out;
    229c:	e0 91 68 02 	lds	r30, 0x0268
    22a0:	f0 91 69 02 	lds	r31, 0x0269
    22a4:	a0 81       	ld	r26, Z
		 *  \return Next data element stored in the buffer.
		 */
		static inline uint8_t RingBuffer_Remove(RingBuffer_t* Buffer) ATTR_NON_NULL_PTR_ARG(1);
		static inline uint8_t RingBuffer_Remove(RingBuffer_t* Buffer)
		{
			GCC_FORCE_POINTER_ACCESS(Buffer);
    22a6:	fb 01       	movw	r30, r22

			uint8_t Data = *Buffer->Out;

			if (++Buffer->Out == Buffer->End)
    22a8:	82 81       	ldd	r24, Z+2	; 0x02
    22aa:	93 81       	ldd	r25, Z+3	; 0x03
    22ac:	01 96       	adiw	r24, 0x01	; 1
    22ae:	93 83       	std	Z+3, r25	; 0x03
    22b0:	82 83       	std	Z+2, r24	; 0x02
    22b2:	46 81       	ldd	r20, Z+6	; 0x06
    22b4:	57 81       	ldd	r21, Z+7	; 0x07
    22b6:	84 17       	cp	r24, r20
    22b8:	95 07       	cpc	r25, r21
    22ba:	21 f4       	brne	.+8      	; 0x22c4 <palavraLida+0x40>
			  Buffer->Out = Buffer->Start;
    22bc:	84 81       	ldd	r24, Z+4	; 0x04
    22be:	95 81       	ldd	r25, Z+5	; 0x05
    22c0:	93 83       	std	Z+3, r25	; 0x03
    22c2:	82 83       	std	Z+2, r24	; 0x02
			static inline uint_reg_t GetGlobalInterruptMask(void)
			{
				GCC_MEMORY_BARRIER();

				#if (ARCH == ARCH_AVR8)
				return SREG;
    22c4:	4f b7       	in	r20, 0x3f	; 63
			static inline void GlobalInterruptDisable(void)
			{
				GCC_MEMORY_BARRIER();

				#if (ARCH == ARCH_AVR8)
				cli();
    22c6:	f8 94       	cli

			uint_reg_t CurrentGlobalInt = GetGlobalInterruptMask();
			GlobalInterruptDisable();

			Buffer->Count--;
    22c8:	82 85       	ldd	r24, Z+10	; 0x0a
    22ca:	93 85       	ldd	r25, Z+11	; 0x0b
    22cc:	01 97       	sbiw	r24, 0x01	; 1
    22ce:	93 87       	std	Z+11, r25	; 0x0b
    22d0:	82 87       	std	Z+10, r24	; 0x0a
			static inline void SetGlobalInterruptMask(const uint_reg_t GlobalIntState)
			{
				GCC_MEMORY_BARRIER();

				#if (ARCH == ARCH_AVR8)
				SREG = GlobalIntState;
    22d2:	4f bf       	out	0x3f, r20	; 63
	{
		caracter = RingBuffer_Peek(&USB_DadosRecebidos_pt);
		RingBuffer_Remove(&USB_DadosRecebidos_pt);
		if (caracter != '\r')
    22d4:	ad 30       	cpi	r26, 0x0D	; 13
    22d6:	81 f0       	breq	.+32     	; 0x22f8 <palavraLida+0x74>
			palavraRecebida[palavraRecebida_pt++]=caracter;
    22d8:	e0 91 72 02 	lds	r30, 0x0272
    22dc:	81 e0       	ldi	r24, 0x01	; 1
    22de:	8e 0f       	add	r24, r30
    22e0:	80 93 72 02 	sts	0x0272, r24
    22e4:	f0 e0       	ldi	r31, 0x00	; 0
    22e6:	e1 58       	subi	r30, 0x81	; 129
    22e8:	fb 4f       	sbci	r31, 0xFB	; 251
    22ea:	a0 83       	st	Z, r26
    22ec:	21 50       	subi	r18, 0x01	; 1
    22ee:	31 09       	sbc	r19, r1
{
	uint16_t BufferCount = RingBuffer_GetCount(&USB_DadosRecebidos_pt);
	uint8_t caracter;
		
	/* Se existem dados no buffer da USB ele será processsado aqui */
	while (BufferCount--)
    22f0:	21 15       	cp	r18, r1
    22f2:	31 05       	cpc	r19, r1
    22f4:	99 f6       	brne	.-90     	; 0x229c <palavraLida+0x18>
    22f6:	0c c0       	rjmp	.+24     	; 0x2310 <palavraLida+0x8c>
		RingBuffer_Remove(&USB_DadosRecebidos_pt);
		if (caracter != '\r')
			palavraRecebida[palavraRecebida_pt++]=caracter;
		else
		{
				palavraRecebida[palavraRecebida_pt]= 0;
    22f8:	e0 91 72 02 	lds	r30, 0x0272
    22fc:	f0 e0       	ldi	r31, 0x00	; 0
    22fe:	e1 58       	subi	r30, 0x81	; 129
    2300:	fb 4f       	sbci	r31, 0xFB	; 251
    2302:	10 82       	st	Z, r1
				palavraRecebida_pt= 0;
    2304:	10 92 72 02 	sts	0x0272, r1
				return 1;
    2308:	81 e0       	ldi	r24, 0x01	; 1
    230a:	08 95       	ret
		}
	}
	return 0;
    230c:	80 e0       	ldi	r24, 0x00	; 0
    230e:	08 95       	ret
    2310:	80 e0       	ldi	r24, 0x00	; 0
}
    2312:	08 95       	ret

00002314 <ModoControlar>:
	}
	
}

void ModoControlar()
{
    2314:	cf 93       	push	r28
	int8_t fim=0;
	
	PosicionarServos();
    2316:	81 d8       	rcall	.-3838   	; 0x141a <PosicionarServos>
	
}

void ModoControlar()
{
	int8_t fim=0;
    2318:	c0 e0       	ldi	r28, 0x00	; 0
	PosicionarServos();
	
	while (fim == 0)
	{
		
		lerEntradasuMC();
    231a:	0e 94 a7 02 	call	0x54e	; 0x54e <lerEntradasuMC>
		trataID();
    231e:	0e 94 90 01 	call	0x320	; 0x320 <trataID>
		trataSensoresDigitais();
    2322:	0e 94 cd 01 	call	0x39a	; 0x39a <trataSensoresDigitais>
		enviarDados();
    2326:	11 df       	rcall	.-478    	; 0x214a <enviarDados>
    2328:	8f e3       	ldi	r24, 0x3F	; 63
    232a:	9c e9       	ldi	r25, 0x9C	; 156
    232c:	01 97       	sbiw	r24, 0x01	; 1
    232e:	f1 f7       	brne	.-4      	; 0x232c <ModoControlar+0x18>
    2330:	00 c0       	rjmp	.+0      	; 0x2332 <ModoControlar+0x1e>
    2332:	00 00       	nop
		_delay_ms(10);
		if (palavraLida()==1)
    2334:	a7 df       	rcall	.-178    	; 0x2284 <palavraLida>
    2336:	81 30       	cpi	r24, 0x01	; 1
    2338:	59 f4       	brne	.+22     	; 0x2350 <ModoControlar+0x3c>
		{
			L1G_on();
    233a:	71 9a       	sbi	0x0e, 1	; 14
			if (strcmp(palavraRecebida, "Mf")==0)
    233c:	67 e2       	ldi	r22, 0x27	; 39
    233e:	71 e0       	ldi	r23, 0x01	; 1
    2340:	8f e7       	ldi	r24, 0x7F	; 127
    2342:	94 e0       	ldi	r25, 0x04	; 4
    2344:	85 d1       	rcall	.+778    	; 0x2650 <strcmp>
    2346:	89 2b       	or	r24, r25
    2348:	29 f0       	breq	.+10     	; 0x2354 <ModoControlar+0x40>
{
	int8_t fim=0;
	
	PosicionarServos();
	
	while (fim == 0)
    234a:	cc 23       	and	r28, r28
    234c:	31 f3       	breq	.-52     	; 0x231a <ModoControlar+0x6>
    234e:	02 c0       	rjmp	.+4      	; 0x2354 <ModoControlar+0x40>
    2350:	cc 23       	and	r28, r28
    2352:	19 f3       	breq	.-58     	; 0x231a <ModoControlar+0x6>
			if (strcmp(palavraRecebida, "Mf")==0)
				fim=1;
		}
	}	
	
}	
    2354:	cf 91       	pop	r28
    2356:	08 95       	ret

00002358 <comunicacaoComoLEGAL>:

//--------------------------------------------------------------------------
// Rotina que gerencia a comunicação com a máquina hopedeira e chama as demais rotinas do MC
void comunicacaoComoLEGAL()
{
	if (palavraLida()==1)
    2358:	95 df       	rcall	.-214    	; 0x2284 <palavraLida>
    235a:	81 30       	cpi	r24, 0x01	; 1
    235c:	09 f0       	breq	.+2      	; 0x2360 <comunicacaoComoLEGAL+0x8>
    235e:	36 c0       	rjmp	.+108    	; 0x23cc <comunicacaoComoLEGAL+0x74>
	{
		if (strcmp(palavraRecebida, "ping")==0) 
    2360:	6a e2       	ldi	r22, 0x2A	; 42
    2362:	71 e0       	ldi	r23, 0x01	; 1
    2364:	8f e7       	ldi	r24, 0x7F	; 127
    2366:	94 e0       	ldi	r25, 0x04	; 4
    2368:	73 d1       	rcall	.+742    	; 0x2650 <strcmp>
    236a:	89 2b       	or	r24, r25
    236c:	21 f4       	brne	.+8      	; 0x2376 <comunicacaoComoLEGAL+0x1e>
		{
			envieUSB_string_nl("pong");
    236e:	8f e2       	ldi	r24, 0x2F	; 47
    2370:	91 e0       	ldi	r25, 0x01	; 1
    2372:	6e c9       	rjmp	.-3364   	; 0x1650 <envieUSB_string_nl>
    2374:	08 95       	ret
		} 
		else
		if (strcmp(palavraRecebida, "Mn")==0)	// Solicita nome, série, versão e produto
    2376:	64 e3       	ldi	r22, 0x34	; 52
    2378:	71 e0       	ldi	r23, 0x01	; 1
    237a:	8f e7       	ldi	r24, 0x7F	; 127
    237c:	94 e0       	ldi	r25, 0x04	; 4
    237e:	68 d1       	rcall	.+720    	; 0x2650 <strcmp>
    2380:	89 2b       	or	r24, r25
    2382:	e1 f4       	brne	.+56     	; 0x23bc <comunicacaoComoLEGAL+0x64>
		{
			envieUSB_Char('r');
    2384:	82 e7       	ldi	r24, 0x72	; 114
    2386:	b2 da       	rcall	.-2716   	; 0x18ec <envieUSB_Char>
			envieUSB_string_nl(Nome_Robo);
    2388:	87 e3       	ldi	r24, 0x37	; 55
    238a:	91 e0       	ldi	r25, 0x01	; 1
    238c:	61 d9       	rcall	.-3390   	; 0x1650 <envieUSB_string_nl>
			envieUSB_Char('s');
    238e:	83 e7       	ldi	r24, 0x73	; 115
    2390:	ad da       	rcall	.-2726   	; 0x18ec <envieUSB_Char>
			envieUSB_string_nl(Numero_Serie);
    2392:	8f e3       	ldi	r24, 0x3F	; 63
    2394:	91 e0       	ldi	r25, 0x01	; 1
    2396:	5c d9       	rcall	.-3400   	; 0x1650 <envieUSB_string_nl>
			envieUSB_Char('t');
    2398:	84 e7       	ldi	r24, 0x74	; 116
    239a:	a8 da       	rcall	.-2736   	; 0x18ec <envieUSB_Char>
			envieUSB_string_nl(Versao_kernel);
    239c:	85 e4       	ldi	r24, 0x45	; 69
    239e:	91 e0       	ldi	r25, 0x01	; 1
    23a0:	57 d9       	rcall	.-3410   	; 0x1650 <envieUSB_string_nl>
			envieUSB_Char('p');
    23a2:	80 e7       	ldi	r24, 0x70	; 112
    23a4:	a3 da       	rcall	.-2746   	; 0x18ec <envieUSB_Char>
			envieUSB_string_nl(Produto);
    23a6:	8a e4       	ldi	r24, 0x4A	; 74
    23a8:	91 e0       	ldi	r25, 0x01	; 1
    23aa:	52 d9       	rcall	.-3420   	; 0x1650 <envieUSB_string_nl>
			envieUSB_Char('w');
    23ac:	87 e7       	ldi	r24, 0x77	; 119
    23ae:	9e da       	rcall	.-2756   	; 0x18ec <envieUSB_Char>
			envieUSB_string_nl(Versao_hw);
    23b0:	80 e5       	ldi	r24, 0x50	; 80
    23b2:	91 e0       	ldi	r25, 0x01	; 1
    23b4:	4d d9       	rcall	.-3430   	; 0x1650 <envieUSB_string_nl>
			palavraRecebida_pt = 0;
    23b6:	10 92 72 02 	sts	0x0272, r1
    23ba:	08 95       	ret
		}
		else
		if (strcmp(palavraRecebida, "Ms10")==0) ModoControlar();
    23bc:	65 e5       	ldi	r22, 0x55	; 85
    23be:	71 e0       	ldi	r23, 0x01	; 1
    23c0:	8f e7       	ldi	r24, 0x7F	; 127
    23c2:	94 e0       	ldi	r25, 0x04	; 4
    23c4:	45 d1       	rcall	.+650    	; 0x2650 <strcmp>
    23c6:	89 2b       	or	r24, r25
    23c8:	09 f4       	brne	.+2      	; 0x23cc <comunicacaoComoLEGAL+0x74>
    23ca:	a4 cf       	rjmp	.-184    	; 0x2314 <ModoControlar>
    23cc:	08 95       	ret

000023ce <mc_conectado>:

//******************************************************
//  Rotina que gerencia o modo conectado

void  mc_conectado()
{
    23ce:	cf 93       	push	r28
    23d0:	df 93       	push	r29
	L2G_off();
    23d2:	74 98       	cbi	0x0e, 4	; 14
	
	while (uMC_Modo == MODO_CONECTADO)
    23d4:	80 91 73 02 	lds	r24, 0x0273
    23d8:	81 11       	cpse	r24, r1
    23da:	20 c0       	rjmp	.+64     	; 0x241c <mc_conectado+0x4e>
	
		lerEntradasuMC();

		//*****************************************
		//   NÃO REMOVER DO LOOP 
		testaBateria();    // Verifica deve emitir o aviso de bateria baixa
    23dc:	c0 e9       	ldi	r28, 0x90	; 144
    23de:	d2 e0       	ldi	r29, 0x02	; 2
{
	L2G_off();
	
	while (uMC_Modo == MODO_CONECTADO)
	{
		L2R_on();
    23e0:	5d 9a       	sbi	0x0b, 5	; 11
	
		lerEntradasuMC();
    23e2:	0e 94 a7 02 	call	0x54e	; 0x54e <lerEntradasuMC>

		//*****************************************
		//   NÃO REMOVER DO LOOP 
		testaBateria();    // Verifica deve emitir o aviso de bateria baixa
    23e6:	88 81       	ld	r24, Y
    23e8:	99 81       	ldd	r25, Y+1	; 0x01
    23ea:	4e 97       	sbiw	r24, 0x1e	; 30
    23ec:	5c f4       	brge	.+22     	; 0x2404 <mc_conectado+0x36>
    23ee:	5d 98       	cbi	0x0b, 5	; 11
    23f0:	74 98       	cbi	0x0e, 4	; 14
    23f2:	2f ef       	ldi	r18, 0xFF	; 255
    23f4:	85 ea       	ldi	r24, 0xA5	; 165
    23f6:	9e e0       	ldi	r25, 0x0E	; 14
    23f8:	21 50       	subi	r18, 0x01	; 1
    23fa:	80 40       	sbci	r24, 0x00	; 0
    23fc:	90 40       	sbci	r25, 0x00	; 0
    23fe:	e1 f7       	brne	.-8      	; 0x23f8 <mc_conectado+0x2a>
    2400:	00 c0       	rjmp	.+0      	; 0x2402 <mc_conectado+0x34>
    2402:	00 00       	nop
		receberUSB();
    2404:	a9 d8       	rcall	.-3758   	; 0x1558 <receberUSB>
		
		comunicacaoComoLEGAL(); // Verifica se há e trata a coomunicaçao com o PC
    2406:	a8 df       	rcall	.-176    	; 0x2358 <comunicacaoComoLEGAL>

		CDC_Device_USBTask(&VirtualSerial_CDC_Interface);
    2408:	80 e0       	ldi	r24, 0x00	; 0
    240a:	91 e0       	ldi	r25, 0x01	; 1
    240c:	0e 94 1e 04 	call	0x83c	; 0x83c <CDC_Device_USBTask>
		USB_USBTask();
    2410:	0e 94 f3 09 	call	0x13e6	; 0x13e6 <USB_USBTask>

void  mc_conectado()
{
	L2G_off();
	
	while (uMC_Modo == MODO_CONECTADO)
    2414:	80 91 73 02 	lds	r24, 0x0273
    2418:	88 23       	and	r24, r24
    241a:	11 f3       	breq	.-60     	; 0x23e0 <mc_conectado+0x12>
		//*
		//****************************************

	}
	
}
    241c:	df 91       	pop	r29
    241e:	cf 91       	pop	r28
    2420:	08 95       	ret

00002422 <main>:
/** 
*  FUNÇÃO PRINCIPAL. 
 */
int main(void)
{
	iniciaHardware();
    2422:	53 d8       	rcall	.-3930   	; 0x14ca <iniciaHardware>
	
	inicia_LEGAL();
	
	setupADCSleepmode();
    2424:	0e 94 c6 02 	call	0x58c	; 0x58c <setupADCSleepmode>
	

	for (;;)
	{
			
		if (uMC_Modo == MODO_CONECTADO) mc_conectado();
    2428:	80 91 73 02 	lds	r24, 0x0273
    242c:	81 11       	cpse	r24, r1
    242e:	02 c0       	rjmp	.+4      	; 0x2434 <main+0x12>
    2430:	ce df       	rcall	.-100    	; 0x23ce <mc_conectado>
    2432:	01 c0       	rjmp	.+2      	; 0x2436 <main+0x14>
		else mc_executaPrograma();
    2434:	a2 db       	rcall	.-2236   	; 0x1b7a <mc_executaPrograma>
		
		reInicia_uMC();
    2436:	0e 94 1c 03 	call	0x638	; 0x638 <reInicia_uMC>
		ApagarLeds();
    243a:	0e 94 18 0a 	call	0x1430	; 0x1430 <ApagarLeds>
	}
    243e:	f4 cf       	rjmp	.-24     	; 0x2428 <main+0x6>

00002440 <EVENT_USB_Device_Connect>:

//***************************************************************************************

/** Event handler for the library USB Connection event. */
void EVENT_USB_Device_Connect(void)
{
    2440:	08 95       	ret

00002442 <EVENT_USB_Device_Disconnect>:
	
}

/** Event handler for the library USB Disconnection event. */
void EVENT_USB_Device_Disconnect(void)
{
    2442:	08 95       	ret

00002444 <EVENT_USB_Device_ConfigurationChanged>:
/** Event handler for the library USB Configuration Changed event. */
void EVENT_USB_Device_ConfigurationChanged(void)
{
	bool ConfigSuccess = true;

	ConfigSuccess &= CDC_Device_ConfigureEndpoints(&VirtualSerial_CDC_Interface);	
    2444:	80 e0       	ldi	r24, 0x00	; 0
    2446:	91 e0       	ldi	r25, 0x01	; 1
    2448:	0c 94 a6 03 	jmp	0x74c	; 0x74c <CDC_Device_ConfigureEndpoints>
    244c:	08 95       	ret

0000244e <EVENT_USB_Device_ControlRequest>:
}

/** Event handler for the library USB Control Request reception event. */
void EVENT_USB_Device_ControlRequest(void)
{
	CDC_Device_ProcessControlRequest(&VirtualSerial_CDC_Interface);
    244e:	80 e0       	ldi	r24, 0x00	; 0
    2450:	91 e0       	ldi	r25, 0x01	; 1
    2452:	0c 94 6e 04 	jmp	0x8dc	; 0x8dc <CDC_Device_ProcessControlRequest>
    2456:	08 95       	ret

00002458 <EVENT_CDC_Device_LineEncodingChanged>:
/** Event handler for the CDC Class driver Line Encoding Changed event.
 *
 *  \param[in] CDCInterfaceInfo  Pointer to the CDC class interface configuration structure being referenced
 */
void EVENT_CDC_Device_LineEncodingChanged(USB_ClassInfo_CDC_Device_t* const CDCInterfaceInfo)
{
    2458:	df 92       	push	r13
    245a:	ef 92       	push	r14
    245c:	ff 92       	push	r15
    245e:	0f 93       	push	r16
    2460:	1f 93       	push	r17
    2462:	cf 93       	push	r28
    2464:	df 93       	push	r29
    2466:	fc 01       	movw	r30, r24
	uint8_t ConfigMask = 0;

	switch (CDCInterfaceInfo->State.LineEncoding.ParityType)
    2468:	81 8d       	ldd	r24, Z+25	; 0x19
    246a:	81 30       	cpi	r24, 0x01	; 1
    246c:	41 f0       	breq	.+16     	; 0x247e <EVENT_CDC_Device_LineEncodingChanged+0x26>
    246e:	82 30       	cpi	r24, 0x02	; 2
    2470:	11 f0       	breq	.+4      	; 0x2476 <EVENT_CDC_Device_LineEncodingChanged+0x1e>
 *
 *  \param[in] CDCInterfaceInfo  Pointer to the CDC class interface configuration structure being referenced
 */
void EVENT_CDC_Device_LineEncodingChanged(USB_ClassInfo_CDC_Device_t* const CDCInterfaceInfo)
{
	uint8_t ConfigMask = 0;
    2472:	d1 2c       	mov	r13, r1
    2474:	08 c0       	rjmp	.+16     	; 0x2486 <EVENT_CDC_Device_LineEncodingChanged+0x2e>
	{
		case CDC_PARITY_Odd:
			ConfigMask = ((1 << UPM11) | (1 << UPM10));
			break;
		case CDC_PARITY_Even:
			ConfigMask = (1 << UPM11);
    2476:	68 94       	set
    2478:	dd 24       	eor	r13, r13
    247a:	d5 f8       	bld	r13, 5
			break;
    247c:	04 c0       	rjmp	.+8      	; 0x2486 <EVENT_CDC_Device_LineEncodingChanged+0x2e>
	uint8_t ConfigMask = 0;

	switch (CDCInterfaceInfo->State.LineEncoding.ParityType)
	{
		case CDC_PARITY_Odd:
			ConfigMask = ((1 << UPM11) | (1 << UPM10));
    247e:	0f 2e       	mov	r0, r31
    2480:	f0 e3       	ldi	r31, 0x30	; 48
    2482:	df 2e       	mov	r13, r31
    2484:	f0 2d       	mov	r31, r0
		case CDC_PARITY_Even:
			ConfigMask = (1 << UPM11);
			break;
	}

	if (CDCInterfaceInfo->State.LineEncoding.CharFormat == CDC_LINEENCODING_TwoStopBits)
    2486:	80 8d       	ldd	r24, Z+24	; 0x18
    2488:	82 30       	cpi	r24, 0x02	; 2
    248a:	19 f4       	brne	.+6      	; 0x2492 <EVENT_CDC_Device_LineEncodingChanged+0x3a>
	  ConfigMask |= (1 << USBS1);
    248c:	8d 2d       	mov	r24, r13
    248e:	88 60       	ori	r24, 0x08	; 8
    2490:	d8 2e       	mov	r13, r24

	switch (CDCInterfaceInfo->State.LineEncoding.DataBits)
    2492:	82 8d       	ldd	r24, Z+26	; 0x1a
    2494:	87 30       	cpi	r24, 0x07	; 7
    2496:	41 f0       	breq	.+16     	; 0x24a8 <EVENT_CDC_Device_LineEncodingChanged+0x50>
    2498:	88 30       	cpi	r24, 0x08	; 8
    249a:	51 f0       	breq	.+20     	; 0x24b0 <EVENT_CDC_Device_LineEncodingChanged+0x58>
    249c:	86 30       	cpi	r24, 0x06	; 6
    249e:	59 f4       	brne	.+22     	; 0x24b6 <EVENT_CDC_Device_LineEncodingChanged+0x5e>
	{
		case 6:
			ConfigMask |= (1 << UCSZ10);
    24a0:	ad 2d       	mov	r26, r13
    24a2:	a2 60       	ori	r26, 0x02	; 2
    24a4:	da 2e       	mov	r13, r26
			break;
    24a6:	07 c0       	rjmp	.+14     	; 0x24b6 <EVENT_CDC_Device_LineEncodingChanged+0x5e>
		case 7:
			ConfigMask |= (1 << UCSZ11);
    24a8:	bd 2d       	mov	r27, r13
    24aa:	b4 60       	ori	r27, 0x04	; 4
    24ac:	db 2e       	mov	r13, r27
			break;
    24ae:	03 c0       	rjmp	.+6      	; 0x24b6 <EVENT_CDC_Device_LineEncodingChanged+0x5e>
		case 8:
			ConfigMask |= ((1 << UCSZ11) | (1 << UCSZ10));
    24b0:	8d 2d       	mov	r24, r13
    24b2:	86 60       	ori	r24, 0x06	; 6
    24b4:	d8 2e       	mov	r13, r24
			break;
	}

	/* Keep the TX line held high (idle) while the USART is reconfigured */
	PORTD |= (1 << 3);
    24b6:	5b 9a       	sbi	0x0b, 3	; 11

	/* Must turn off USART before reconfiguring it, otherwise incorrect operation may occur */
	UCSR1B = 0;
    24b8:	c9 ec       	ldi	r28, 0xC9	; 201
    24ba:	d0 e0       	ldi	r29, 0x00	; 0
    24bc:	18 82       	st	Y, r1
	UCSR1A = 0;
    24be:	08 ec       	ldi	r16, 0xC8	; 200
    24c0:	10 e0       	ldi	r17, 0x00	; 0
    24c2:	d8 01       	movw	r26, r16
    24c4:	1c 92       	st	X, r1
	UCSR1C = 0;
    24c6:	0f 2e       	mov	r0, r31
    24c8:	fa ec       	ldi	r31, 0xCA	; 202
    24ca:	ef 2e       	mov	r14, r31
    24cc:	f1 2c       	mov	r15, r1
    24ce:	f0 2d       	mov	r31, r0
    24d0:	d7 01       	movw	r26, r14
    24d2:	1c 92       	st	X, r1

	/* Set the new baud rate before configuring the USART */
	UBRR1  = SERIAL_2X_UBBRVAL(CDCInterfaceInfo->State.LineEncoding.BaudRateBPS);
    24d4:	24 89       	ldd	r18, Z+20	; 0x14
    24d6:	35 89       	ldd	r19, Z+21	; 0x15
    24d8:	46 89       	ldd	r20, Z+22	; 0x16
    24da:	57 89       	ldd	r21, Z+23	; 0x17
    24dc:	da 01       	movw	r26, r20
    24de:	c9 01       	movw	r24, r18
    24e0:	b6 95       	lsr	r27
    24e2:	a7 95       	ror	r26
    24e4:	97 95       	ror	r25
    24e6:	87 95       	ror	r24
    24e8:	bc 01       	movw	r22, r24
    24ea:	cd 01       	movw	r24, r26
    24ec:	60 58       	subi	r22, 0x80	; 128
    24ee:	7b 47       	sbci	r23, 0x7B	; 123
    24f0:	81 4e       	sbci	r24, 0xE1	; 225
    24f2:	9f 4f       	sbci	r25, 0xFF	; 255
    24f4:	77 d0       	rcall	.+238    	; 0x25e4 <__udivmodsi4>
    24f6:	21 50       	subi	r18, 0x01	; 1
    24f8:	31 09       	sbc	r19, r1
    24fa:	30 93 cd 00 	sts	0x00CD, r19
    24fe:	20 93 cc 00 	sts	0x00CC, r18

	/* Reconfigure the USART in double speed mode for a wider baud rate range at the expense of accuracy */
	UCSR1C = ConfigMask;
    2502:	f7 01       	movw	r30, r14
    2504:	d0 82       	st	Z, r13
	UCSR1A = (1 << U2X1);
    2506:	82 e0       	ldi	r24, 0x02	; 2
    2508:	d8 01       	movw	r26, r16
    250a:	8c 93       	st	X, r24
	UCSR1B = ((1 << RXCIE1) | (1 << TXEN1) | (1 << RXEN1));
    250c:	88 e9       	ldi	r24, 0x98	; 152
    250e:	88 83       	st	Y, r24

	/* Release the TX line after the USART has been reconfigured */
	PORTD &= ~(1 << 3);
    2510:	5b 98       	cbi	0x0b, 3	; 11
}
    2512:	df 91       	pop	r29
    2514:	cf 91       	pop	r28
    2516:	1f 91       	pop	r17
    2518:	0f 91       	pop	r16
    251a:	ff 90       	pop	r15
    251c:	ef 90       	pop	r14
    251e:	df 90       	pop	r13
    2520:	08 95       	ret

00002522 <__vector_25>:

/** ISR to manage the reception of data from the serial port, placing received bytes into a circular buffer
 *  for later transmission to the host.
 */
ISR(USART1_RX_vect, ISR_BLOCK)
{
    2522:	1f 92       	push	r1
    2524:	0f 92       	push	r0
    2526:	0f b6       	in	r0, 0x3f	; 63
    2528:	0f 92       	push	r0
    252a:	11 24       	eor	r1, r1
    252c:	0b b6       	in	r0, 0x3b	; 59
    252e:	0f 92       	push	r0
    2530:	2f 93       	push	r18
    2532:	3f 93       	push	r19
    2534:	4f 93       	push	r20
    2536:	8f 93       	push	r24
    2538:	9f 93       	push	r25
    253a:	af 93       	push	r26
    253c:	bf 93       	push	r27
    253e:	ef 93       	push	r30
    2540:	ff 93       	push	r31
	uint8_t ReceivedByte = UDR1;
    2542:	40 91 ce 00 	lds	r20, 0x00CE

	if ((USB_DeviceState == DEVICE_STATE_Configured) && !(RingBuffer_IsFull(&USB_DadosParaEnviar_pt)))
    2546:	8e b3       	in	r24, 0x1e	; 30
    2548:	84 30       	cpi	r24, 0x04	; 4
    254a:	49 f5       	brne	.+82     	; 0x259e <__vector_25+0x7c>
			static inline uint_reg_t GetGlobalInterruptMask(void)
			{
				GCC_MEMORY_BARRIER();

				#if (ARCH == ARCH_AVR8)
				return SREG;
    254c:	8f b7       	in	r24, 0x3f	; 63
			static inline void GlobalInterruptDisable(void)
			{
				GCC_MEMORY_BARRIER();

				#if (ARCH == ARCH_AVR8)
				cli();
    254e:	f8 94       	cli
			uint16_t Count;

			uint_reg_t CurrentGlobalInt = GetGlobalInterruptMask();
			GlobalInterruptDisable();

			Count = Buffer->Count;
    2550:	20 91 e4 01 	lds	r18, 0x01E4
    2554:	30 91 e5 01 	lds	r19, 0x01E5
			static inline void SetGlobalInterruptMask(const uint_reg_t GlobalIntState)
			{
				GCC_MEMORY_BARRIER();

				#if (ARCH == ARCH_AVR8)
				SREG = GlobalIntState;
    2558:	8f bf       	out	0x3f, r24	; 63
    255a:	80 91 e2 01 	lds	r24, 0x01E2
    255e:	90 91 e3 01 	lds	r25, 0x01E3
    2562:	28 17       	cp	r18, r24
    2564:	39 07       	cpc	r19, r25
    2566:	d9 f0       	breq	.+54     	; 0x259e <__vector_25+0x7c>
		static inline void RingBuffer_Insert(RingBuffer_t* Buffer,
		                                     const uint8_t Data) ATTR_NON_NULL_PTR_ARG(1);
		static inline void RingBuffer_Insert(RingBuffer_t* Buffer,
		                                     const uint8_t Data)
		{
			GCC_FORCE_POINTER_ACCESS(Buffer);
    2568:	ea ed       	ldi	r30, 0xDA	; 218
    256a:	f1 e0       	ldi	r31, 0x01	; 1

			*Buffer->In = Data;
    256c:	a0 81       	ld	r26, Z
    256e:	b1 81       	ldd	r27, Z+1	; 0x01
    2570:	4c 93       	st	X, r20

			if (++Buffer->In == Buffer->End)
    2572:	80 81       	ld	r24, Z
    2574:	91 81       	ldd	r25, Z+1	; 0x01
    2576:	01 96       	adiw	r24, 0x01	; 1
    2578:	91 83       	std	Z+1, r25	; 0x01
    257a:	80 83       	st	Z, r24
    257c:	26 81       	ldd	r18, Z+6	; 0x06
    257e:	37 81       	ldd	r19, Z+7	; 0x07
    2580:	82 17       	cp	r24, r18
    2582:	93 07       	cpc	r25, r19
    2584:	21 f4       	brne	.+8      	; 0x258e <__vector_25+0x6c>
			  Buffer->In = Buffer->Start;
    2586:	84 81       	ldd	r24, Z+4	; 0x04
    2588:	95 81       	ldd	r25, Z+5	; 0x05
    258a:	91 83       	std	Z+1, r25	; 0x01
    258c:	80 83       	st	Z, r24
			static inline uint_reg_t GetGlobalInterruptMask(void)
			{
				GCC_MEMORY_BARRIER();

				#if (ARCH == ARCH_AVR8)
				return SREG;
    258e:	2f b7       	in	r18, 0x3f	; 63
			static inline void GlobalInterruptDisable(void)
			{
				GCC_MEMORY_BARRIER();

				#if (ARCH == ARCH_AVR8)
				cli();
    2590:	f8 94       	cli

			uint_reg_t CurrentGlobalInt = GetGlobalInterruptMask();
			GlobalInterruptDisable();

			Buffer->Count++;
    2592:	82 85       	ldd	r24, Z+10	; 0x0a
    2594:	93 85       	ldd	r25, Z+11	; 0x0b
    2596:	01 96       	adiw	r24, 0x01	; 1
    2598:	93 87       	std	Z+11, r25	; 0x0b
    259a:	82 87       	std	Z+10, r24	; 0x0a
			static inline void SetGlobalInterruptMask(const uint_reg_t GlobalIntState)
			{
				GCC_MEMORY_BARRIER();

				#if (ARCH == ARCH_AVR8)
				SREG = GlobalIntState;
    259c:	2f bf       	out	0x3f, r18	; 63
	  RingBuffer_Insert(&USB_DadosParaEnviar_pt, ReceivedByte);
}
    259e:	ff 91       	pop	r31
    25a0:	ef 91       	pop	r30
    25a2:	bf 91       	pop	r27
    25a4:	af 91       	pop	r26
    25a6:	9f 91       	pop	r25
    25a8:	8f 91       	pop	r24
    25aa:	4f 91       	pop	r20
    25ac:	3f 91       	pop	r19
    25ae:	2f 91       	pop	r18
    25b0:	0f 90       	pop	r0
    25b2:	0b be       	out	0x3b, r0	; 59
    25b4:	0f 90       	pop	r0
    25b6:	0f be       	out	0x3f, r0	; 63
    25b8:	0f 90       	pop	r0
    25ba:	1f 90       	pop	r1
    25bc:	18 95       	reti

000025be <__divmodhi4>:
    25be:	97 fb       	bst	r25, 7
    25c0:	07 2e       	mov	r0, r23
    25c2:	16 f4       	brtc	.+4      	; 0x25c8 <__divmodhi4+0xa>
    25c4:	00 94       	com	r0
    25c6:	06 d0       	rcall	.+12     	; 0x25d4 <__divmodhi4_neg1>
    25c8:	77 fd       	sbrc	r23, 7
    25ca:	08 d0       	rcall	.+16     	; 0x25dc <__divmodhi4_neg2>
    25cc:	2d d0       	rcall	.+90     	; 0x2628 <__udivmodhi4>
    25ce:	07 fc       	sbrc	r0, 7
    25d0:	05 d0       	rcall	.+10     	; 0x25dc <__divmodhi4_neg2>
    25d2:	3e f4       	brtc	.+14     	; 0x25e2 <__divmodhi4_exit>

000025d4 <__divmodhi4_neg1>:
    25d4:	90 95       	com	r25
    25d6:	81 95       	neg	r24
    25d8:	9f 4f       	sbci	r25, 0xFF	; 255
    25da:	08 95       	ret

000025dc <__divmodhi4_neg2>:
    25dc:	70 95       	com	r23
    25de:	61 95       	neg	r22
    25e0:	7f 4f       	sbci	r23, 0xFF	; 255

000025e2 <__divmodhi4_exit>:
    25e2:	08 95       	ret

000025e4 <__udivmodsi4>:
    25e4:	a1 e2       	ldi	r26, 0x21	; 33
    25e6:	1a 2e       	mov	r1, r26
    25e8:	aa 1b       	sub	r26, r26
    25ea:	bb 1b       	sub	r27, r27
    25ec:	fd 01       	movw	r30, r26
    25ee:	0d c0       	rjmp	.+26     	; 0x260a <__udivmodsi4_ep>

000025f0 <__udivmodsi4_loop>:
    25f0:	aa 1f       	adc	r26, r26
    25f2:	bb 1f       	adc	r27, r27
    25f4:	ee 1f       	adc	r30, r30
    25f6:	ff 1f       	adc	r31, r31
    25f8:	a2 17       	cp	r26, r18
    25fa:	b3 07       	cpc	r27, r19
    25fc:	e4 07       	cpc	r30, r20
    25fe:	f5 07       	cpc	r31, r21
    2600:	20 f0       	brcs	.+8      	; 0x260a <__udivmodsi4_ep>
    2602:	a2 1b       	sub	r26, r18
    2604:	b3 0b       	sbc	r27, r19
    2606:	e4 0b       	sbc	r30, r20
    2608:	f5 0b       	sbc	r31, r21

0000260a <__udivmodsi4_ep>:
    260a:	66 1f       	adc	r22, r22
    260c:	77 1f       	adc	r23, r23
    260e:	88 1f       	adc	r24, r24
    2610:	99 1f       	adc	r25, r25
    2612:	1a 94       	dec	r1
    2614:	69 f7       	brne	.-38     	; 0x25f0 <__udivmodsi4_loop>
    2616:	60 95       	com	r22
    2618:	70 95       	com	r23
    261a:	80 95       	com	r24
    261c:	90 95       	com	r25
    261e:	9b 01       	movw	r18, r22
    2620:	ac 01       	movw	r20, r24
    2622:	bd 01       	movw	r22, r26
    2624:	cf 01       	movw	r24, r30
    2626:	08 95       	ret

00002628 <__udivmodhi4>:
    2628:	aa 1b       	sub	r26, r26
    262a:	bb 1b       	sub	r27, r27
    262c:	51 e1       	ldi	r21, 0x11	; 17
    262e:	07 c0       	rjmp	.+14     	; 0x263e <__udivmodhi4_ep>

00002630 <__udivmodhi4_loop>:
    2630:	aa 1f       	adc	r26, r26
    2632:	bb 1f       	adc	r27, r27
    2634:	a6 17       	cp	r26, r22
    2636:	b7 07       	cpc	r27, r23
    2638:	10 f0       	brcs	.+4      	; 0x263e <__udivmodhi4_ep>
    263a:	a6 1b       	sub	r26, r22
    263c:	b7 0b       	sbc	r27, r23

0000263e <__udivmodhi4_ep>:
    263e:	88 1f       	adc	r24, r24
    2640:	99 1f       	adc	r25, r25
    2642:	5a 95       	dec	r21
    2644:	a9 f7       	brne	.-22     	; 0x2630 <__udivmodhi4_loop>
    2646:	80 95       	com	r24
    2648:	90 95       	com	r25
    264a:	bc 01       	movw	r22, r24
    264c:	cd 01       	movw	r24, r26
    264e:	08 95       	ret

00002650 <strcmp>:
    2650:	fb 01       	movw	r30, r22
    2652:	dc 01       	movw	r26, r24
    2654:	8d 91       	ld	r24, X+
    2656:	01 90       	ld	r0, Z+
    2658:	80 19       	sub	r24, r0
    265a:	01 10       	cpse	r0, r1
    265c:	d9 f3       	breq	.-10     	; 0x2654 <strcmp+0x4>
    265e:	99 0b       	sbc	r25, r25
    2660:	08 95       	ret

00002662 <_exit>:
    2662:	f8 94       	cli

00002664 <__stop_program>:
    2664:	ff cf       	rjmp	.-2      	; 0x2664 <__stop_program>
